(dp0
S'frames'
p1
I4003
sS'zangle'
p2
(lp3
F-76
aF-76
aF-76
aF-76
aF-76
aF-76
aF-76
aF-76
aF-76
aF-76
aF-76
aF-76
aF-76
aF-76
aF-76
aF-76
aF-76
aF-76
aF-76
aF-76
aF-76
aF-76
aF-76
aF-76
aF-76
aF-76
aF-76
aF-76
aF-76
aF-76
aF-76
aF-76
aF-76
aF-76
aF-76
aF-76
aF-76
aF-76
aF-76
aF-76
aF-76
aF-76
aF-76
aF-76
aF-76
aF-76
aF-76
aF-76
aF-76
aF-76
aF-76
aF-76
aF-76
aF-76
aF-76
aF-76
aF-76
aF-76
aF-76
aF-76
aF-76
aF-76
aF-76
aF-76
aF-76
aF-76
aF-76
aF-76
aF-76
aF-76
aF-76
aF-76
aF-76
aF-76
aF-76
aF-76
aF-76
aF-76
aF-76
aF-76
aF-76
aF-76
aF-76
aF-76
aF-76
aF-76
aF-76
aF-76
aF-76
aF-76
aF-76
aF-76
aF-76
aF-76
aF-76
aF-76
aF-76
aF-76
aF-76
aF-76
aF-76
aF-76
aF-76
aF-76
aF-76
aF-76
aF-76
aF-76
aF-76
aF-76
aF-76
aF-76
aF-76
aF-76
aF-76
aF-76
aF-76
aF-76
aF-76
aF-76
aF-76
aF-76
aF-76
aF-76
aF-76
aF-76
aF-76
aF-76
aF-76
aF-76
aF-76
aF-76
aF-76
aF-76
aF-76
aF-76
aF-76
aF-76
aF-76
aF-76
aF-76
aF-76
aF-76
aF-76
aF-76
aF-76
aF-76
aF-76
aF-76
aF-76
aF-76
aF-76
aF-76
aF-76
aF-76
aF-76
aF-76
aF-76
aF-76
aF-76
aF-76
aF-76
aF-76
aF-76
aF-76
aF-76
aF-76
aF-76
aF-76
aF-76
aF-76
aF-76
aF-76
aF-76
aF-76
aF-76
aF-76
aF-76
aF-76
aF-76
aF-76
aF-76
aF-76
aF-76
aF-76
aF-76
aF-76
aF-76
aF-76
aF-76
aF-76
aF-76
aF-76
aF-76
aF-76
aF-76
aF-76
aF-76
aF-76
aF-76
aF-76
aF-76
aF-76
aF-76
aF-76
aF-76
aF-76
aF-76
aF-76
aF-76
aF-76
aF-76
aF-76
aF-76
aF-76
aF-76
aF-76
aF-76
aF-76
aF-76
aF-76
aF-76
aF-76
aF-76
aF-76
aF-76
aF-76
aF-76
aF-76
aF-76
aF-76
aF-76
aF-76
aF-76
aF-76
aF-76
aF-76
aF-76
aF-76
aF-76
aF-76
aF-76
aF-76
aF-76
aF-76
aF-76
aF-76
aF-76
aF-76
aF-76
aF-76
aF-76
aF-76
aF-76
aF-76
aF-76
aF-76
aF-76
aF-76
aF-76
aF-76
aF-76
aF-76
aF-76
aF-76
aF-76
aF-76
aF-76
aF-76
aF-76
aF-76
aF-76
aF-76
aF-76
aF-76
aF-76
aF-76
aF-76
aF-76
aF-76
aF-76
aF-76
aF-76
aF-76
aF-76
aF-76
aF-76
aF-76
aF-76
aF-76
aF-76
aF-76
aF-76
aF-76
aF-76
aF-76
aF-76
aF-76
aF-76
aF-76
aF-76
aF-76
aF-76
aF-76
aF-76
aF-76
aF-76
aF-76
aF-76
aF-76
aF-76
aF-76
aF-76
aF-76
aF-76
aF-76
aF-76
aF-76
aF-76
aF-76
aF-76
aF-76
aF-76
aF-76
aF-76
aF-76
aF-76
aF-76
aF-76
aF-76
aF-76
aF-76
aF-76
aF-76
aF-76
aF-76
aF-76
aF-76
aF-76
aF-76
aF-76
aF-76
aF-76
aF-76
aF-76
aF-76
aF-76
aF-76
aF-76
aF-76
aF-76
aF-76
aF-76
aF-76
aF-76
aF-76
aF-76
aF-76
aF-76
aF-76
aF-76
aF-76
aF-76
aF-76
aF-76
aF-76
aF-76
aF-76
aF-76
aF-76
aF-76
aF-76
aF-76
aF-76
aF-76
aF-76
aF-76
aF-76
aF-76
aF-76
aF-76
aF-76
aF-76
aF-76
aF-76
aF-76
aF-76
aF-76
aF-76
aF-76
aF-76
aF-76
aF-76
aF-76
aF-76
aF-76
aF-76
aF-76
aF-76
aF-76
aF-76
aF-76
aF-76
aF-76
aF-76
aF-76
aF-76
aF-76
aF-76
aF-76
aF-76
aF-76
aF-76
aF-76
aF-76
aF-76
aF-76
aF-76
aF-76
aF-76
aF-76
aF-76
aF-76
aF-76
aF-76
aF-76
aF-76
aF-76
aF-76
aF-76
aF-76
aF-76
aF-76
aF-76
aF-76
aF-76
aF-76
aF-76
aF-76
aF-76
aF-76
aF-76
aF-76
aF-76
aF-76
aF-76
aF-76
aF-76
aF-76
aF-76
aF-76
aF-76
aF-76
aF-76
aF-76
aF-76
aF-76
aF-76
aF-76
aF-76
aF-76
aF-76
aF-76
aF-76
aF-76
aF-76
aF-76
aF-76
aF-76
aF-76
aF-76
aF-76
aF-76
aF-76
aF-76
aF-76
aF-76
aF-76
aF-76
aF-76
aF-76
aF-76
aF-76
aF-76
aF-76
aF-76
aF-76
aF-76
aF-76
aF-76
aF-76
aF-76
aF-76
aF-76
aF-76
aF-76
aF-76
aF-76
aF-76
aF-76
aF-76
aF-76
aF-76
aF-76
aF-76
aF-76
aF-76
aF-76
aF-76
aF-76
aF-76
aF-76
aF-76
aF-76
aF-76
aF-76
aF-76
aF-76
aF-76
aF-76
aF-76
aF-76
aF-76
aF-76
aF-76
aF-76
aF-76
aF-76
aF-76
aF-76
aF-76
aF-76
aF-76
aF-76
aF-76
aF-76
aF-77
aF-77
aF-77
aF-77
aF-77
aF-77
aF-77
aF-77
aF-77
aF-77
aF-77
aF-77
aF-77
aF-77
aF-77
aF-77
aF-77
aF-77
aF-77
aF-77
aF-77
aF-77
aF-77
aF-77
aF-77
aF-77
aF-77
aF-77
aF-77
aF-77
aF-77
aF-77
aF-77
aF-77
aF-77
aF-77
aF-77
aF-77
aF-76
aF-76
aF-76
aF-76
aF-76
aF-76
aF-76
aF-76
aF-76
aF-76
aF-76
aF-76
aF-76
aF-76
aF-76
aF-76
aF-76
aF-76
aF-76
aF-76
aF-76
aF-76
aF-76
aF-76
aF-76
aF-76
aF-76
aF-76
aF-76
aF-76
aF-76
aF-76
aF-76
aF-76
aF-76
aF-76
aF-76
aF-77
aF-77
aF-77
aF-77
aF-77
aF-77
aF-77
aF-77
aF-77
aF-77
aF-77
aF-77
aF-77
aF-77
aF-77
aF-77
aF-77
aF-77
aF-77
aF-77
aF-78
aF-78
aF-78
aF-78
aF-78
aF-78
aF-78
aF-78
aF-78
aF-78
aF-78
aF-78
aF-78
aF-78
aF-78
aF-78
aF-78
aF-78
aF-78
aF-78
aF-78
aF-78
aF-78
aF-78
aF-78
aF-78
aF-78
aF-79
aF-79
aF-79
aF-79
aF-79
aF-79
aF-79
aF-79
aF-78
aF-78
aF-78
aF-78
aF-78
aF-78
aF-78
aF-78
aF-78
aF-78
aF-78
aF-79
aF-79
aF-79
aF-79
aF-79
aF-79
aF-79
aF-79
aF-79
aF-79
aF-79
aF-79
aF-79
aF-79
aF-79
aF-79
aF-79
aF-79
aF-79
aF-79
aF-79
aF-79
aF-79
aF-79
aF-79
aF-79
aF-79
aF-79
aF-79
aF-80
aF-80
aF-80
aF-80
aF-80
aF-80
aF-80
aF-80
aF-80
aF-80
aF-80
aF-80
aF-80
aF-80
aF-80
aF-80
aF-80
aF-80
aF-80
aF-80
aF-80
aF-80
aF-80
aF-80
aF-80
aF-80
aF-80
aF-80
aF-80
aF-80
aF-80
aF-80
aF-80
aF-80
aF-80
aF-80
aF-80
aF-80
aF-80
aF-80
aF-80
aF-81
aF-81
aF-81
aF-81
aF-81
aF-81
aF-81
aF-81
aF-81
aF-81
aF-81
aF-81
aF-81
aF-81
aF-81
aF-81
aF-81
aF-81
aF-81
aF-81
aF-81
aF-81
aF-81
aF-81
aF-81
aF-81
aF-81
aF-81
aF-81
aF-81
aF-81
aF-81
aF-81
aF-81
aF-81
aF-81
aF-81
aF-81
aF-81
aF-81
aF-81
aF-81
aF-81
aF-81
aF-81
aF-81
aF-81
aF-81
aF-81
aF-81
aF-81
aF-81
aF-82
aF-82
aF-82
aF-82
aF-82
aF-82
aF-82
aF-82
aF-82
aF-82
aF-82
aF-82
aF-82
aF-82
aF-82
aF-82
aF-82
aF-82
aF-82
aF-82
aF-83
aF-83
aF-83
aF-83
aF-83
aF-83
aF-83
aF-83
aF-83
aF-83
aF-83
aF-83
aF-83
aF-83
aF-83
aF-83
aF-83
aF-83
aF-83
aF-83
aF-83
aF-83
aF-83
aF-83
aF-83
aF-83
aF-83
aF-83
aF-83
aF-83
aF-83
aF-83
aF-83
aF-84
aF-84
aF-84
aF-84
aF-84
aF-84
aF-84
aF-84
aF-84
aF-84
aF-84
aF-84
aF-84
aF-84
aF-84
aF-84
aF-84
aF-84
aF-84
aF-84
aF-84
aF-84
aF-84
aF-84
aF-84
aF-84
aF-84
aF-84
aF-84
aF-84
aF-84
aF-84
aF-84
aF-84
aF-84
aF-84
aF-84
aF-84
aF-84
aF-84
aF-84
aF-84
aF-84
aF-85
aF-85
aF-85
aF-85
aF-85
aF-85
aF-85
aF-85
aF-85
aF-85
aF-85
aF-85
aF-85
aF-85
aF-85
aF-85
aF-85
aF-85
aF-85
aF-85
aF-85
aF-85
aF-85
aF-85
aF-85
aF-85
aF-85
aF-85
aF-85
aF-85
aF-85
aF-85
aF-85
aF-85
aF-85
aF-85
aF-85
aF-85
aF-85
aF-85
aF-85
aF-85
aF-85
aF-85
aF-85
aF-85
aF-85
aF-85
aF-85
aF-85
aF-85
aF-85
aF-85
aF-85
aF-85
aF-85
aF-85
aF-85
aF-85
aF-85
aF-85
aF-85
aF-85
aF-85
aF-85
aF-85
aF-85
aF-85
aF-85
aF-85
aF-86
aF-86
aF-86
aF-86
aF-86
aF-86
aF-86
aF-86
aF-86
aF-86
aF-86
aF-86
aF-86
aF-86
aF-86
aF-86
aF-86
aF-86
aF-86
aF-86
aF-86
aF-86
aF-86
aF-86
aF-86
aF-86
aF-86
aF-86
aF-86
aF-86
aF-86
aF-86
aF-86
aF-86
aF-86
aF-86
aF-86
aF-86
aF-86
aF-86
aF-86
aF-86
aF-86
aF-86
aF-86
aF-86
aF-86
aF-86
aF-86
aF-86
aF-86
aF-86
aF-86
aF-86
aF-86
aF-86
aF-86
aF-86
aF-86
aF-86
aF-86
aF-86
aF-86
aF-86
aF-86
aF-86
aF-86
aF-86
aF-86
aF-86
aF-86
aF-86
aF-86
aF-86
aF-86
aF-86
aF-86
aF-86
aF-86
aF-86
aF-87
aF-87
aF-87
aF-87
aF-87
aF-87
aF-87
aF-87
aF-87
aF-87
aF-87
aF-87
aF-87
aF-87
aF-87
aF-87
aF-87
aF-87
aF-87
aF-87
aF-87
aF-87
aF-87
aF-87
aF-87
aF-87
aF-87
aF-87
aF-87
aF-87
aF-87
aF-87
aF-87
aF-87
aF-87
aF-87
aF-87
aF-87
aF-87
aF-87
aF-87
aF-87
aF-87
aF-87
aF-87
aF-87
aF-87
aF-87
aF-87
aF-87
aF-87
aF-87
aF-87
aF-87
aF-87
aF-87
aF-87
aF-87
aF-87
aF-87
aF-87
aF-87
aF-87
aF-87
aF-87
aF-87
aF-87
aF-87
aF-87
aF-87
aF-87
aF-87
aF-87
aF-87
aF-87
aF-87
aF-87
aF-87
aF-87
aF-87
aF-87
aF-87
aF-87
aF-87
aF-87
aF-87
aF-87
aF-87
aF-87
aF-87
aF-87
aF-87
aF-87
aF-87
aF-87
aF-87
aF-87
aF-87
aF-87
aF-87
aF-87
aF-87
aF-87
aF-87
aF-87
aF-87
aF-87
aF-87
aF-87
aF-87
aF-87
aF-87
aF-87
aF-87
aF-87
aF-87
aF-87
aF-87
aF-87
aF-87
aF-87
aF-87
aF-87
aF-87
aF-87
aF-87
aF-87
aF-87
aF-87
aF-87
aF-87
aF-87
aF-87
aF-87
aF-87
aF-87
aF-87
aF-87
aF-87
aF-87
aF-87
aF-87
aF-87
aF-87
aF-87
aF-87
aF-87
aF-87
aF-87
aF-87
aF-87
aF-87
aF-87
aF-87
aF-87
aF-87
aF-87
aF-87
aF-87
aF-87
aF-87
aF-87
aF-87
aF-87
aF-87
aF-87
aF-87
aF-87
aF-87
aF-87
aF-87
aF-87
aF-87
aF-87
aF-87
aF-87
aF-87
aF-87
aF-87
aF-87
aF-87
aF-87
aF-87
aF-87
aF-87
aF-87
aF-87
aF-87
aF-87
aF-87
aF-87
aF-87
aF-87
aF-87
aF-87
aF-87
aF-87
aF-87
aF-87
aF-87
aF-87
aF-87
aF-87
aF-87
aF-87
aF-87
aF-87
aF-87
aF-87
aF-87
aF-87
aF-87
aF-87
aF-87
aF-87
aF-87
aF-87
aF-87
aF-87
aF-87
aF-87
aF-87
aF-87
aF-87
aF-87
aF-87
aF-87
aF-87
aF-87
aF-87
aF-87
aF-87
aF-87
aF-87
aF-87
aF-87
aF-87
aF-87
aF-87
aF-87
aF-87
aF-87
aF-87
aF-87
aF-87
aF-87
aF-87
aF-87
aF-87
aF-87
aF-87
aF-87
aF-87
aF-87
aF-87
aF-87
aF-87
aF-86
aF-86
aF-86
aF-86
aF-86
aF-86
aF-86
aF-86
aF-86
aF-86
aF-86
aF-86
aF-86
aF-86
aF-86
aF-86
aF-86
aF-86
aF-86
aF-86
aF-86
aF-86
aF-86
aF-86
aF-86
aF-86
aF-86
aF-86
aF-86
aF-86
aF-85
aF-85
aF-85
aF-85
aF-85
aF-85
aF-85
aF-85
aF-85
aF-85
aF-84
aF-84
aF-84
aF-84
aF-84
aF-84
aF-84
aF-84
aF-84
aF-84
aF-84
aF-85
aF-85
aF-85
aF-85
aF-85
aF-85
aF-85
aF-85
aF-85
aF-85
aF-85
aF-85
aF-85
aF-85
aF-85
aF-85
aF-85
aF-85
aF-85
aF-85
aF-85
aF-85
aF-85
aF-85
aF-85
aF-85
aF-85
aF-85
aF-85
aF-85
aF-85
aF-84
aF-84
aF-84
aF-84
aF-84
aF-84
aF-84
aF-84
aF-84
aF-84
aF-84
aF-84
aF-84
aF-84
aF-84
aF-84
aF-84
aF-84
aF-83
aF-83
aF-83
aF-83
aF-83
aF-83
aF-83
aF-83
aF-83
aF-83
aF-83
aF-83
aF-83
aF-83
aF-83
aF-83
aF-83
aF-83
aF-83
aF-83
aF-83
aF-83
aF-83
aF-83
aF-83
aF-83
aF-83
aF-83
aF-83
aF-83
aF-83
aF-82
aF-82
aF-82
aF-82
aF-82
aF-82
aF-82
aF-82
aF-82
aF-82
aF-82
aF-82
aF-82
aF-82
aF-82
aF-82
aF-82
aF-82
aF-82
aF-82
aF-82
aF-82
aF-82
aF-82
aF-82
aF-82
aF-82
aF-82
aF-82
aF-81
aF-81
aF-81
aF-81
aF-81
aF-81
aF-81
aF-81
aF-81
aF-81
aF-81
aF-81
aF-81
aF-81
aF-81
aF-81
aF-81
aF-81
aF-81
aF-81
aF-81
aF-81
aF-81
aF-80
aF-80
aF-80
aF-80
aF-80
aF-80
aF-80
aF-80
aF-80
aF-80
aF-80
aF-80
aF-80
aF-80
aF-80
aF-80
aF-80
aF-80
aF-80
aF-80
aF-80
aF-80
aF-80
aF-80
aF-80
aF-80
aF-80
aF-80
aF-80
aF-80
aF-80
aF-80
aF-80
aF-80
aF-80
aF-80
aF-80
aF-80
aF-80
aF-80
aF-80
aF-80
aF-80
aF-80
aF-80
aF-80
aF-80
aF-80
aF-80
aF-80
aF-80
aF-79
aF-79
aF-79
aF-79
aF-79
aF-79
aF-79
aF-79
aF-79
aF-79
aF-79
aF-79
aF-79
aF-79
aF-79
aF-79
aF-79
aF-79
aF-79
aF-79
aF-79
aF-79
aF-79
aF-79
aF-79
aF-79
aF-79
aF-79
aF-79
aF-79
aF-79
aF-79
aF-79
aF-79
aF-79
aF-79
aF-79
aF-79
aF-79
aF-79
aF-79
aF-79
aF-79
aF-79
aF-79
aF-79
aF-79
aF-79
aF-79
aF-79
aF-79
aF-79
aF-78
aF-78
aF-78
aF-78
aF-78
aF-78
aF-78
aF-78
aF-78
aF-78
aF-78
aF-78
aF-78
aF-78
aF-78
aF-78
aF-78
aF-78
aF-78
aF-78
aF-78
aF-78
aF-78
aF-78
aF-78
aF-78
aF-78
aF-78
aF-78
aF-78
aF-78
aF-78
aF-78
aF-78
aF-78
aF-78
aF-78
aF-78
aF-78
aF-78
aF-78
aF-78
aF-78
aF-78
aF-78
aF-78
aF-78
aF-78
aF-78
aF-78
aF-78
aF-78
aF-78
aF-78
aF-78
aF-77
aF-77
aF-77
aF-77
aF-77
aF-77
aF-77
aF-77
aF-77
aF-77
aF-78
aF-78
aF-78
aF-78
aF-78
aF-78
aF-78
aF-78
aF-78
aF-78
aF-78
aF-78
aF-78
aF-78
aF-78
aF-78
aF-78
aF-78
aF-78
aF-78
aF-78
aF-78
aF-78
aF-78
aF-78
aF-78
aF-78
aF-78
aF-78
aF-78
aF-78
aF-78
aF-78
aF-78
aF-78
aF-78
aF-78
aF-78
aF-78
aF-78
aF-78
aF-78
aF-78
aF-78
aF-78
aF-78
aF-78
aF-78
aF-78
aF-78
aF-78
aF-78
aF-78
aF-78
aF-78
aF-78
aF-78
aF-78
aF-78
aF-78
aF-78
aF-78
aF-78
aF-78
aF-78
aF-78
aF-78
aF-78
aF-78
aF-78
aF-78
aF-78
aF-78
aF-78
aF-78
aF-78
aF-78
aF-78
aF-78
aF-78
aF-78
aF-78
aF-78
aF-78
aF-78
aF-78
aF-78
aF-78
aF-78
aF-78
aF-78
aF-78
aF-78
aF-78
aF-78
aF-78
aF-78
aF-78
aF-78
aF-78
aF-78
aF-78
aF-78
aF-78
aF-78
aF-78
aF-78
aF-78
aF-78
aF-78
aF-78
aF-78
aF-78
aF-78
aF-78
aF-78
aF-78
aF-78
aF-78
aF-78
aF-78
aF-78
aF-78
aF-78
aF-78
aF-78
aF-78
aF-78
aF-78
aF-78
aF-78
aF-78
aF-78
aF-78
aF-78
aF-78
aF-78
aF-78
aF-78
aF-78
aF-78
aF-78
aF-78
aF-78
aF-78
aF-78
aF-78
aF-78
aF-78
aF-78
aF-78
aF-78
aF-78
aF-78
aF-78
aF-78
aF-78
aF-78
aF-78
aF-78
aF-78
aF-78
aF-78
aF-78
aF-78
aF-78
aF-78
aF-78
aF-78
aF-78
aF-78
aF-78
aF-78
aF-78
aF-78
aF-78
aF-78
aF-78
aF-78
aF-78
aF-78
aF-78
aF-78
aF-78
aF-78
aF-78
aF-78
aF-78
aF-78
aF-78
aF-78
aF-78
aF-78
aF-78
aF-78
aF-78
aF-78
aF-78
aF-78
aF-77
aF-77
aF-77
aF-77
aF-77
aF-77
aF-77
aF-77
aF-77
aF-77
aF-77
aF-77
aF-77
aF-77
aF-77
aF-77
aF-77
aF-77
aF-77
aF-77
aF-77
aF-77
aF-77
aF-77
aF-77
aF-77
aF-77
aF-77
aF-77
aF-77
aF-77
aF-77
aF-77
aF-77
aF-77
aF-77
aF-77
aF-77
aF-77
aF-77
aF-77
aF-77
aF-77
aF-77
aF-77
aF-77
aF-77
aF-77
aF-77
aF-77
aF-77
aF-77
aF-77
aF-77
aF-77
aF-77
aF-77
aF-77
aF-77
aF-77
aF-77
aF-77
aF-77
aF-77
aF-77
aF-77
aF-78
aF-78
aF-78
aF-78
aF-78
aF-78
aF-78
aF-78
aF-78
aF-78
aF-78
aF-78
aF-78
aF-78
aF-78
aF-78
aF-78
aF-78
aF-78
aF-78
aF-78
aF-78
aF-78
aF-78
aF-78
aF-78
aF-78
aF-78
aF-78
aF-78
aF-78
aF-78
aF-78
aF-78
aF-78
aF-78
aF-78
aF-78
aF-78
aF-78
aF-78
aF-78
aF-78
aF-78
aF-78
aF-77
aF-77
aF-77
aF-77
aF-77
aF-77
aF-77
aF-77
aF-77
aF-77
aF-77
aF-77
aF-77
aF-77
aF-77
aF-78
aF-78
aF-78
aF-78
aF-78
aF-78
aF-78
aF-78
aF-78
aF-78
aF-78
aF-78
aF-77
aF-77
aF-77
aF-77
aF-77
aF-77
aF-77
aF-77
aF-77
aF-77
aF-77
aF-77
aF-77
aF-77
aF-77
aF-77
aF-77
aF-77
aF-77
aF-77
aF-77
aF-77
aF-77
aF-77
aF-77
aF-77
aF-77
aF-77
aF-77
aF-77
aF-77
aF-77
aF-77
aF-77
aF-77
aF-77
aF-77
aF-77
aF-78
aF-78
aF-78
aF-78
aF-78
aF-78
aF-78
aF-78
aF-78
aF-78
aF-77
aF-77
aF-77
aF-77
aF-77
aF-77
aF-77
aF-77
aF-77
aF-77
aF-77
aF-77
aF-77
aF-77
aF-77
aF-77
aF-77
aF-77
aF-77
aF-77
aF-77
aF-77
aF-77
aF-77
aF-77
aF-77
aF-77
aF-77
aF-77
aF-77
aF-77
aF-77
aF-77
aF-77
aF-77
aF-77
aF-77
aF-77
aF-77
aF-77
aF-77
aF-77
aF-77
aF-77
aF-77
aF-77
aF-77
aF-77
aF-77
aF-77
aF-77
aF-77
aF-77
aF-77
aF-77
aF-78
aF-78
aF-78
aF-78
aF-78
aF-78
aF-78
aF-78
aF-78
aF-78
aF-78
aF-78
aF-78
aF-78
aF-78
aF-77
aF-77
aF-77
aF-77
aF-77
aF-77
aF-77
aF-77
aF-77
aF-77
aF-77
aF-77
aF-77
aF-77
aF-77
aF-77
aF-77
aF-77
aF-77
aF-77
aF-77
aF-77
aF-77
aF-77
aF-77
aF-77
aF-77
aF-77
aF-77
aF-77
aF-77
aF-77
aF-77
aF-77
aF-77
aF-77
aF-77
aF-77
aF-77
aF-77
aF-77
aF-77
aF-77
aF-77
aF-77
aF-77
aF-77
aF-77
aF-77
aF-77
aF-77
aF-77
aF-77
aF-77
aF-77
aF-77
aF-77
aF-77
aF-77
aF-77
aF-77
aF-77
aF-77
aF-77
aF-77
aF-77
aF-77
aF-77
aF-77
aF-77
aF-77
aF-77
aF-77
aF-77
aF-77
aF-77
aF-77
aF-77
aF-77
aF-77
aF-77
aF-77
aF-77
aF-77
aF-77
aF-77
aF-77
aF-77
aF-77
aF-77
aF-77
aF-77
aF-77
aF-77
aF-77
aF-77
aF-77
aF-77
aF-77
aF-77
aF-77
aF-77
aF-77
aF-77
aF-77
aF-77
aF-77
aF-77
aF-77
aF-77
aF-77
aF-77
aF-77
aF-77
aF-77
aF-78
aF-78
aF-78
aF-78
aF-78
aF-78
aF-78
aF-78
aF-78
aF-78
aF-78
aF-78
aF-77
aF-77
aF-77
aF-77
aF-77
aF-77
aF-77
aF-77
aF-77
aF-77
aF-77
aF-77
aF-78
aF-78
aF-78
aF-78
aF-78
aF-78
aF-78
aF-78
aF-78
aF-78
aF-78
aF-78
aF-78
aF-77
aF-77
aF-77
aF-77
aF-77
aF-77
aF-77
aF-77
aF-77
aF-77
aF-77
aF-77
aF-78
aF-78
aF-78
aF-78
aF-78
aF-78
aF-78
aF-78
aF-78
aF-78
aF-78
aF-77
aF-77
aF-77
aF-77
aF-77
aF-77
aF-77
aF-77
aF-77
aF-77
aF-77
aF-77
aF-77
aF-77
aF-77
aF-77
aF-77
aF-77
aF-77
aF-77
aF-77
aF-77
aF-77
aF-77
aF-77
aF-77
aF-77
aF-77
aF-77
aF-77
aF-77
aF-77
aF-77
aF-77
aF-78
aF-78
aF-78
aF-78
aF-78
aF-78
aF-78
aF-78
aF-78
aF-78
aF-78
aF-78
aF-78
aF-78
aF-78
aF-78
aF-78
aF-77
aF-77
aF-77
aF-77
aF-77
aF-77
aF-77
aF-77
aF-77
aF-77
aF-77
aF-77
aF-77
aF-77
aF-77
aF-77
aF-77
aF-77
aF-77
aF-77
aF-77
aF-77
aF-77
aF-77
aF-77
aF-77
aF-77
aF-77
aF-77
aF-77
aF-77
aF-77
aF-77
aF-77
aF-77
aF-77
aF-77
aF-77
aF-77
aF-77
aF-77
aF-77
aF-77
aF-77
aF-77
aF-77
aF-77
aF-77
aF-77
aF-78
aF-78
aF-78
aF-78
aF-78
aF-78
aF-78
aF-78
aF-78
aF-78
aF-78
aF-78
aF-77
aF-77
aF-77
aF-77
aF-77
aF-77
aF-77
aF-77
aF-77
aF-77
aF-77
aF-77
aF-77
aF-77
aF-77
aF-77
aF-77
aF-77
aF-77
aF-77
aF-77
aF-77
aF-77
aF-77
aF-77
aF-77
aF-77
aF-77
aF-77
aF-77
aF-77
aF-77
aF-77
aF-77
aF-77
aF-77
aF-77
aF-77
aF-77
aF-77
aF-77
aF-77
aF-77
aF-77
aF-77
aF-77
aF-77
aF-77
aF-77
aF-77
aF-77
aF-77
aF-77
aF-77
aF-77
aF-77
aF-77
aF-77
aF-77
aF-77
aF-77
aF-77
aF-77
aF-77
aF-77
aF-77
aF-77
aF-77
aF-77
aF-77
aF-77
aF-77
aF-77
aF-77
aF-77
aF-77
aF-77
aF-77
aF-77
aF-77
aF-77
aF-77
aF-77
aF-77
aF-77
aF-77
aF-77
aF-77
aF-77
aF-77
aF-77
aF-77
aF-77
aF-77
aF-77
aF-77
aF-77
aF-77
aF-77
aF-77
aF-78
aF-78
aF-78
aF-78
aF-78
aF-78
aF-78
aF-78
aF-78
aF-78
aF-78
aF-78
aF-78
aF-78
aF-78
aF-78
aF-78
aF-78
aF-78
aF-78
aF-78
aF-78
aF-78
aF-78
aF-78
aF-78
aF-78
aF-78
aF-78
aF-78
aF-78
aF-78
aF-78
aF-78
aF-77
aF-77
aF-77
aF-77
aF-77
aF-77
aF-77
aF-77
aF-77
aF-77
aF-77
aF-77
aF-77
aF-77
aF-77
aF-77
aF-77
aF-77
aF-77
aF-77
aF-77
aF-77
aF-77
aF-77
aF-77
aF-77
aF-78
aF-78
aF-78
aF-78
aF-78
aF-78
aF-78
aF-78
aF-78
aF-78
aF-78
aF-78
aF-78
aF-78
aF-78
aF-78
aF-78
aF-78
aF-78
aF-78
aF-78
aF-78
aF-78
aF-78
aF-78
aF-78
aF-78
aF-78
aF-78
aF-78
aF-78
aF-78
aF-78
aF-78
aF-78
aF-78
aF-78
aF-78
aF-78
aF-78
aF-78
aF-78
aF-78
aF-78
aF-78
aF-78
aF-78
aF-78
aF-78
aF-78
aF-78
aF-78
aF-78
aF-78
aF-78
aF-78
aF-78
aF-78
aF-78
aF-79
aF-79
aF-79
aF-79
aF-79
aF-79
aF-79
aF-79
aF-79
aF-80
aF-80
aF-80
aF-80
aF-80
aF-80
aF-80
aF-80
aF-80
aF-80
aF-80
aF-80
aF-80
aF-80
aF-80
aF-80
aF-80
aF-80
aF-80
aF-80
aF-80
aF-80
aF-80
aF-80
aF-80
aF-80
aF-80
aF-80
aF-80
aF-80
aF-80
aF-80
aF-80
aF-80
aF-80
aF-80
aF-80
aF-80
aF-80
aF-80
aF-80
aF-80
aF-80
aF-80
aF-80
aF-80
aF-80
aF-80
aF-80
aF-80
aF-80
aF-80
aF-80
aF-80
aF-80
aF-80
aF-80
aF-80
aF-80
aF-80
aF-80
aF-80
aF-80
aF-80
aF-80
aF-80
aF-80
aF-80
aF-80
aF-80
aF-80
aF-80
aF-80
aF-80
aF-80
aF-80
aF-80
aF-80
aF-80
aF-80
aF-80
aF-80
aF-80
aF-80
aF-80
aF-80
aF-80
aF-80
aF-80
aF-80
aF-80
aF-80
aF-80
aF-80
aF-80
aF-80
aF-80
aF-80
aF-80
aF-80
aF-80
aF-80
aF-80
aF-80
aF-80
aF-80
aF-80
aF-80
aF-80
aF-80
aF-80
aF-80
aF-80
aF-80
aF-80
aF-80
aF-80
aF-80
aF-80
aF-80
aF-80
aF-80
aF-80
aF-80
aF-80
aF-80
aF-80
aF-80
aF-80
aF-80
aF-80
aF-80
aF-80
aF-80
aF-80
aF-80
aF-80
aF-80
aF-80
aF-80
aF-80
aF-80
aF-80
aF-80
aF-80
aF-80
aF-80
aF-80
aF-80
aF-80
aF-80
aF-80
aF-80
aF-80
aF-80
aF-80
aF-80
aF-80
aF-80
aF-80
aF-80
aF-80
aF-80
aF-80
aF-80
aF-80
aF-80
aF-80
aF-80
aF-80
aF-79
aF-79
aF-79
aF-79
aF-79
aF-79
aF-79
aF-79
aF-79
aF-79
aF-79
aF-79
aF-79
aF-79
aF-79
aF-79
aF-79
aF-79
aF-79
aF-79
aF-79
aF-79
aF-79
aF-79
aF-79
aF-79
aF-79
aF-79
aF-79
aF-79
aF-79
aF-79
aF-78
aF-78
aF-78
aF-78
aF-78
aF-78
aF-78
aF-78
aF-78
aF-78
aF-78
aF-78
aF-78
aF-78
aF-77
aF-77
aF-77
aF-77
aF-77
aF-77
aF-77
aF-77
aF-77
aF-77
aF-77
aF-77
aF-77
aF-77
aF-77
aF-77
aF-77
aF-78
aF-78
aF-78
aF-78
aF-78
aF-78
aF-78
aF-78
aF-78
aF-78
aF-78
aF-78
aF-78
aF-78
aF-78
aF-78
aF-77
aF-77
aF-77
aF-77
aF-77
aF-77
aF-77
aF-77
aF-77
aF-77
aF-77
aF-77
aF-77
aF-77
aF-77
aF-77
aF-77
aF-77
aF-77
aF-77
aF-77
aF-77
aF-77
aF-77
aF-77
aF-77
aF-77
aF-77
aF-77
aF-77
aF-77
aF-77
aF-77
aF-77
aF-77
aF-77
aF-77
aF-77
aF-77
aF-77
aF-77
aF-77
aF-77
aF-77
aF-77
aF-77
aF-77
aF-77
aF-77
aF-77
aF-77
aF-77
aF-77
aF-77
aF-77
aF-77
aF-77
aF-77
aF-77
aF-77
aF-77
aF-77
aF-77
aF-77
aF-77
aF-77
aF-77
aF-77
aF-77
aF-77
aF-77
aF-77
aF-77
aF-77
aF-77
aF-77
aF-77
aF-77
aF-77
aF-77
aF-77
aF-77
aF-77
aF-77
aF-77
aF-77
aF-77
aF-77
aF-77
aF-77
aF-77
aF-77
aF-77
aF-77
aF-77
aF-76
aF-76
aF-76
aF-76
aF-76
aF-76
aF-76
aF-76
aF-76
aF-76
aF-76
aF-76
aF-76
aF-76
aF-76
aF-76
aF-76
aF-76
aF-76
aF-76
aF-76
aF-76
aF-76
aF-76
aF-76
aF-76
aF-76
aF-76
aF-76
aF-76
aF-76
aF-76
aF-76
aF-76
aF-76
aF-76
aF-76
aF-76
aF-76
aF-76
aF-76
aF-76
aF-76
aF-76
aF-76
aF-76
aF-76
aF-76
aF-76
aF-76
aF-76
aF-76
aF-76
aF-76
aF-76
aF-76
aF-76
aF-76
aF-76
aF-76
aF-76
aF-76
aF-76
aF-76
aF-76
aF-76
aF-76
aF-76
aF-76
aF-76
aF-76
aF-76
aF-76
aF-76
aF-76
aF-76
aF-76
aF-76
aF-76
aF-76
aF-76
aF-76
aF-76
aF-76
aF-76
aF-76
aF-76
aF-76
aF-76
aF-76
aF-76
aF-76
aF-76
aF-76
aF-76
aF-76
aF-76
aF-76
aF-76
aF-76
aF-76
aF-76
aF-76
aF-76
aF-76
aF-76
aF-76
aF-76
aF-76
aF-76
aF-76
aF-76
aF-76
aF-76
aF-76
aF-76
aF-76
aF-76
aF-76
aF-76
aF-76
aF-76
aF-76
aF-76
aF-76
aF-76
aF-76
aF-76
aF-76
aF-76
aF-76
aF-76
aF-76
aF-76
aF-76
aF-76
aF-76
aF-76
aF-76
aF-76
aF-76
aF-76
aF-76
aF-76
aF-76
aF-76
aF-76
aF-76
aF-76
aF-76
aF-76
aF-76
aF-77
aF-77
aF-77
aF-77
aF-77
aF-77
aF-77
aF-77
aF-77
aF-77
aF-77
aF-77
aF-77
aF-77
aF-77
aF-77
aF-77
aF-77
aF-77
aF-77
aF-77
aF-77
aF-77
aF-77
aF-77
aF-77
aF-77
aF-77
aF-77
aF-77
aF-77
aF-77
aF-77
aF-77
aF-77
aF-77
aF-77
aF-77
aF-77
aF-77
aF-77
aF-77
aF-77
aF-77
aF-77
aF-77
aF-77
aF-77
aF-77
aF-77
aF-78
aF-78
aF-78
aF-78
aF-78
aF-78
aF-78
aF-78
aF-78
aF-78
aF-78
aF-78
aF-78
aF-78
aF-78
aF-78
aF-78
aF-78
aF-78
aF-78
aF-78
aF-78
aF-78
aF-78
aF-78
aF-78
aF-78
aF-79
aF-79
aF-79
aF-79
aF-79
aF-79
aF-79
aF-79
aF-79
aF-79
aF-79
aF-79
aF-79
aF-79
aF-79
aF-79
aF-79
aF-79
aF-79
aF-79
aF-79
aF-79
aF-79
aF-79
aF-79
aF-79
aF-79
aF-79
aF-79
aF-79
aF-79
aF-79
aF-79
aF-79
aF-79
aF-79
aF-79
aF-79
aF-79
aF-79
aF-79
aF-79
aF-79
aF-79
aF-79
aF-79
aF-79
aF-79
aF-79
aF-79
aF-79
aF-79
aF-79
aF-79
aF-79
aF-79
aF-79
aF-79
aF-79
aF-79
aF-79
aF-79
aF-79
aF-79
aF-79
aF-79
aF-79
aF-79
aF-79
aF-79
aF-79
aF-79
aF-79
aF-79
aF-79
aF-79
aF-79
aF-79
aF-79
aF-79
aF-79
aF-79
aF-79
aF-79
aF-79
aF-79
aF-79
aF-79
aF-79
aF-79
aF-79
aF-79
aF-79
aF-79
aF-79
aF-79
aF-79
aF-79
aF-79
aF-79
aF-79
aF-79
aF-79
aF-79
aF-79
aF-79
aF-79
aF-79
aF-79
aF-79
aF-79
aF-79
aF-79
aF-79
aF-79
aF-79
aF-79
aF-79
aF-79
aF-79
aF-79
aF-78
aF-78
aF-78
aF-78
aF-78
aF-78
aF-78
aF-78
aF-78
aF-78
aF-78
aF-78
aF-78
aF-78
aF-78
aF-78
aF-78
aF-78
aF-78
aF-78
aF-78
aF-78
aF-78
aF-78
aF-78
aF-78
aF-78
aF-78
aF-78
aF-78
aF-78
aF-78
aF-78
aF-78
aF-78
aF-78
aF-78
aF-78
aF-78
aF-78
aF-78
aF-78
aF-78
aF-77
aF-77
aF-77
aF-77
aF-77
aF-77
aF-77
aF-77
aF-76
aF-76
aF-76
aF-76
aF-76
aF-76
aF-76
aF-76
aF-76
aF-76
aF-76
aF-76
aF-76
aF-76
aF-76
aF-76
aF-76
aF-76
aF-76
aF-76
aF-76
aF-76
aF-76
aF-76
aF-76
aF-76
aF-76
aF-76
aF-76
aF-76
aF-76
aF-77
aF-77
aF-77
aF-77
aF-77
aF-77
aF-77
aF-77
aF-77
aF-77
aF-76
aF-76
aF-76
aF-76
aF-76
aF-76
aF-76
aF-76
aF-76
aF-76
aF-76
aF-76
aF-76
aF-76
aF-76
aF-76
aF-76
aF-76
aF-76
aF-76
aF-76
aF-76
aF-76
aF-76
aF-76
aF-76
aF-76
aF-76
aF-76
aF-76
aF-76
aF-76
aF-76
aF-76
aF-76
aF-76
aF-76
aF-76
aF-76
aF-76
aF-76
aF-76
aF-76
aF-76
aF-76
aF-76
aF-76
aF-76
aF-76
aF-76
aF-76
aF-76
aF-76
aF-76
aF-76
aF-76
aF-76
aF-76
aF-76
aF-76
aF-76
aF-76
aF-76
aF-76
aF-76
aF-76
aF-76
aF-76
aF-76
aF-76
aF-76
aF-76
aF-76
aF-76
aF-76
aF-76
aF-76
aF-76
aF-76
aF-76
aF-76
aF-76
aF-76
aF-76
aF-76
aF-76
aF-76
aF-76
aF-76
aF-76
aF-76
aF-76
aF-76
aF-76
aF-76
aF-76
aF-76
aF-76
aF-76
aF-76
aF-76
aF-76
aF-76
aF-76
aF-76
aF-76
aF-76
aF-76
aF-76
aF-76
aF-76
aF-76
aF-76
aF-76
aF-76
aF-76
aF-76
aF-76
aF-76
aF-76
aF-76
aF-76
aF-76
aF-76
aF-76
aF-76
aF-77
aF-77
aF-77
aF-77
aF-77
aF-77
aF-77
aF-77
aF-77
aF-77
aF-77
aF-77
aF-77
aF-77
aF-77
aF-77
aF-77
aF-77
aF-77
aF-77
aF-77
aF-77
aF-77
aF-77
aF-77
aF-77
aF-77
aF-77
aF-77
aF-77
aF-77
aF-77
aF-77
aF-77
aF-77
aF-77
aF-77
aF-77
aF-77
aF-77
aF-77
aF-77
aF-77
aF-77
aF-77
aF-77
aF-77
aF-77
aF-77
aF-77
aF-77
aF-77
aF-77
aF-77
aF-77
aF-77
aF-77
aF-77
aF-77
aF-77
aF-77
aF-77
aF-77
aF-77
aF-77
aF-77
aF-77
aF-77
aF-77
aF-77
aF-77
aF-77
aF-77
aF-77
aF-77
aF-77
aF-77
aF-77
aF-77
aF-77
aF-77
aF-77
aF-77
aF-77
aF-77
aF-77
aF-77
aF-77
aF-77
aF-77
aF-77
aF-77
aF-77
aF-77
aF-77
aF-77
aF-77
aF-77
aF-77
aF-77
aF-77
aF-78
aF-78
aF-78
aF-78
aF-78
aF-78
aF-78
aF-78
aF-78
aF-78
aF-78
aF-78
aF-78
aF-78
aF-78
aF-78
aF-78
aF-78
aF-78
aF-78
aF-78
aF-78
aF-78
aF-78
aF-78
aF-78
aF-78
aF-78
aF-78
aF-78
aF-78
aF-78
aF-78
aF-78
aF-78
aF-78
aF-78
aF-78
aF-78
aF-78
aF-78
aF-79
aF-79
aF-79
aF-79
aF-79
aF-79
aF-79
aF-79
aF-79
aF-79
aF-79
aF-79
aF-78
aF-78
aF-78
aF-78
aF-78
aF-78
aF-78
aF-78
aF-78
aF-78
aF-78
aF-79
aF-79
aF-79
aF-79
aF-79
aF-79
aF-79
aF-79
aF-79
aF-79
aF-79
aF-79
aF-79
aF-79
aF-79
aF-79
aF-79
aF-79
aF-79
aF-79
aF-79
aF-79
aF-79
aF-79
aF-79
aF-79
aF-79
aF-79
aF-79
aF-79
aF-79
aF-79
aF-79
aF-79
aF-79
aF-79
aF-79
aF-79
aF-79
aF-79
aF-79
aF-79
aF-79
aF-79
aF-79
aF-79
aF-79
aF-79
aF-79
aF-79
aF-79
aF-79
aF-79
aF-79
aF-79
aF-79
aF-79
aF-79
aF-79
aF-79
aF-79
aF-79
aF-79
aF-79
aF-79
aF-79
aF-79
aF-79
aF-79
aF-79
aF-79
aF-79
aF-79
aF-79
aF-79
aF-79
aF-79
aF-79
aF-79
aF-79
aF-79
aF-79
aF-79
aF-79
aF-79
aF-79
aF-79
aF-79
aF-79
aF-79
aF-79
aF-79
aF-79
aF-79
aF-79
aF-79
aF-79
aF-79
aF-79
aF-78
aF-78
aF-78
aF-78
aF-78
aF-78
aF-78
aF-78
aF-78
aF-78
aF-78
aF-78
aF-78
aF-78
aF-78
aF-78
aF-78
aF-78
aF-78
aF-78
aF-78
aF-78
aF-78
aF-78
aF-78
aF-78
aF-78
aF-78
aF-78
aF-78
aF-78
aF-78
aF-78
aF-78
aF-78
aF-78
aF-78
aF-78
aF-78
aF-78
aF-78
aF-78
aF-78
aF-77
aF-77
aF-77
aF-77
aF-77
aF-77
aF-77
aF-77
aF-77
aF-77
aF-77
aF-77
aF-77
aF-77
aF-77
aF-77
aF-76
aF-76
aF-76
aF-76
aF-76
aF-76
aF-76
aF-76
aF-76
aF-76
aF-76
aF-76
aF-76
aF-76
aF-76
aF-76
aF-76
aF-76
aF-76
aF-76
aF-76
aF-76
aF-76
aF-76
aF-76
aF-76
aF-76
aF-76
aF-76
aF-76
aF-76
aF-76
aF-76
aF-77
aF-77
aF-77
aF-77
aF-77
aF-77
aF-77
aF-77
aF-77
aF-77
aF-77
aF-77
aF-77
aF-77
aF-77
aF-77
aF-77
aF-77
aF-77
aF-77
aF-77
aF-77
aF-77
aF-76
aF-76
aF-76
aF-76
aF-76
aF-76
aF-76
aF-76
aF-76
aF-76
aF-76
aF-76
aF-76
aF-76
aF-76
aF-76
aF-76
aF-76
aF-76
aF-76
aF-76
aF-76
aF-76
aF-76
aF-76
aF-76
aF-76
aF-76
aF-76
aF-76
aF-76
aF-76
aF-76
aF-76
aF-76
aF-76
aF-76
aF-76
aF-76
aF-76
aF-76
aF-76
aF-76
aF-76
aF-76
aF-76
aF-76
aF-76
aF-76
aF-76
aF-76
aF-76
aF-76
aF-76
aF-76
aF-76
aF-76
aF-76
aF-76
aF-76
aF-76
aF-76
aF-76
aF-76
aF-76
aF-76
aF-76
aF-76
aF-76
aF-76
aF-76
aF-76
aF-76
aF-76
aF-76
aF-76
aF-76
aF-76
aF-76
aF-76
aF-76
aF-76
aF-76
aF-76
aF-76
aF-76
aF-76
aF-76
aF-76
asS'xangle'
p4
(lp5
F2aF2
aF2
aF2
aF2
aF2
aF2
aF2
aF2
aF2
aF2
aF2
aF2
aF2
aF2
aF2
aF2
aF2
aF2
aF2
aF2
aF2
aF2
aF2
aF2
aF2
aF2
aF2
aF2
aF2
aF2
aF2
aF2
aF2
aF2
aF2
aF2
aF2
aF2
aF2
aF2
aF2
aF2
aF2
aF2
aF2
aF2
aF2
aF2
aF2
aF2
aF2
aF2
aF2
aF2
aF2
aF2
aF2
aF2
aF2
aF2
aF2
aF2
aF2
aF2
aF2
aF2
aF2
aF2
aF2
aF2
aF2
aF2
aF2
aF2
aF2
aF2
aF2
aF2
aF2
aF2
aF2
aF2
aF2
aF2
aF2
aF2
aF2
aF2
aF2
aF2
aF2
aF2
aF2
aF2
aF2
aF2
aF2
aF2
aF2
aF2
aF2
aF2
aF2
aF2
aF2
aF2
aF2
aF2
aF2
aF2
aF2
aF2
aF2
aF2
aF2
aF2
aF2
aF2
aF2
aF2
aF2
aF2
aF2
aF2
aF2
aF2
aF2
aF2
aF2
aF2
aF2
aF2
aF2
aF2
aF2
aF2
aF2
aF2
aF2
aF2
aF2
aF2
aF2
aF2
aF2
aF2
aF2
aF2
aF2
aF2
aF2
aF2
aF2
aF2
aF2
aF2
aF2
aF2
aF2
aF2
aF2
aF2
aF2
aF2
aF2
aF2
aF2
aF2
aF2
aF2
aF2
aF2
aF2
aF2
aF2
aF2
aF2
aF2
aF2
aF2
aF2
aF2
aF2
aF2
aF2
aF2
aF2
aF2
aF2
aF2
aF2
aF2
aF2
aF2
aF2
aF2
aF2
aF2
aF2
aF2
aF2
aF2
aF2
aF2
aF2
aF2
aF2
aF2
aF2
aF2
aF2
aF2
aF2
aF2
aF2
aF2
aF2
aF2
aF2
aF2
aF2
aF2
aF2
aF2
aF2
aF2
aF2
aF2
aF2
aF2
aF2
aF2
aF2
aF2
aF2
aF2
aF2
aF2
aF2
aF2
aF2
aF2
aF2
aF2
aF2
aF2
aF2
aF2
aF2
aF2
aF2
aF2
aF2
aF2
aF2
aF2
aF2
aF2
aF2
aF2
aF2
aF2
aF2
aF2
aF2
aF2
aF2
aF2
aF2
aF2
aF2
aF2
aF2
aF2
aF2
aF2
aF2
aF2
aF2
aF2
aF2
aF2
aF2
aF2
aF2
aF2
aF2
aF2
aF2
aF2
aF2
aF2
aF2
aF2
aF2
aF2
aF2
aF2
aF2
aF2
aF2
aF2
aF2
aF2
aF2
aF2
aF2
aF2
aF2
aF2
aF2
aF2
aF2
aF2
aF2
aF2
aF2
aF2
aF2
aF2
aF2
aF2
aF2
aF2
aF2
aF2
aF2
aF2
aF2
aF2
aF2
aF2
aF2
aF2
aF2
aF2
aF2
aF2
aF2
aF2
aF2
aF2
aF2
aF2
aF2
aF2
aF2
aF2
aF2
aF2
aF2
aF2
aF2
aF2
aF2
aF2
aF2
aF2
aF2
aF2
aF2
aF2
aF2
aF2
aF2
aF2
aF2
aF2
aF2
aF2
aF2
aF2
aF2
aF2
aF2
aF2
aF2
aF2
aF2
aF2
aF2
aF2
aF2
aF2
aF2
aF2
aF2
aF2
aF2
aF2
aF2
aF2
aF2
aF2
aF2
aF2
aF2
aF2
aF2
aF2
aF2
aF2
aF2
aF2
aF2
aF2
aF2
aF2
aF2
aF2
aF2
aF2
aF2
aF2
aF2
aF2
aF2
aF2
aF2
aF2
aF2
aF2
aF2
aF2
aF2
aF2
aF2
aF2
aF2
aF2
aF2
aF2
aF2
aF2
aF2
aF2
aF2
aF2
aF2
aF2
aF2
aF2
aF2
aF2
aF2
aF2
aF2
aF2
aF2
aF2
aF2
aF2
aF2
aF2
aF2
aF2
aF2
aF2
aF2
aF2
aF2
aF2
aF2
aF2
aF2
aF2
aF2
aF2
aF2
aF2
aF2
aF2
aF2
aF2
aF2
aF2
aF2
aF2
aF2
aF2
aF2
aF2
aF2
aF2
aF2
aF2
aF2
aF2
aF2
aF2
aF2
aF2
aF2
aF2
aF2
aF2
aF2
aF2
aF2
aF2
aF2
aF2
aF2
aF2
aF2
aF2
aF2
aF2
aF2
aF2
aF2
aF2
aF2
aF2
aF2
aF2
aF2
aF2
aF2
aF2
aF2
aF2
aF2
aF2
aF2
aF2
aF2
aF2
aF2
aF2
aF2
aF2
aF2
aF2
aF2
aF2
aF2
aF2
aF2
aF2
aF2
aF2
aF2
aF2
aF2
aF2
aF2
aF2
aF2
aF2
aF2
aF2
aF2
aF2
aF2
aF2
aF2
aF2
aF2
aF2
aF2
aF2
aF2
aF2
aF2
aF2
aF2
aF2
aF2
aF2
aF2
aF2
aF2
aF2
aF2
aF2
aF2
aF2
aF2
aF2
aF2
aF2
aF2
aF2
aF2
aF2
aF2
aF2
aF2
aF2
aF2
aF2
aF2
aF2
aF2
aF2
aF2
aF2
aF2
aF2
aF2
aF2
aF2
aF2
aF2
aF2
aF2
aF2
aF2
aF2
aF2
aF2
aF2
aF2
aF2
aF2
aF2
aF2
aF2
aF2
aF2
aF2
aF2
aF2
aF2
aF2
aF2
aF2
aF2
aF2
aF2
aF2
aF2
aF2
aF2
aF2
aF2
aF2
aF2
aF2
aF2
aF2
aF2
aF2
aF2
aF2
aF2
aF2
aF2
aF2
aF2
aF2
aF2
aF2
aF2
aF2
aF2
aF2
aF2
aF2
aF2
aF2
aF2
aF2
aF2
aF2
aF2
aF2
aF2
aF2
aF2
aF2
aF2
aF2
aF2
aF2
aF2
aF2
aF2
aF2
aF2
aF2
aF2
aF2
aF2
aF2
aF2
aF2
aF2
aF2
aF2
aF2
aF2
aF2
aF2
aF2
aF2
aF2
aF2
aF2
aF2
aF2
aF2
aF2
aF2
aF2
aF2
aF2
aF2
aF2
aF2
aF2
aF2
aF2
aF2
aF2
aF2
aF2
aF2
aF2
aF2
aF2
aF2
aF2
aF2
aF2
aF2
aF2
aF2
aF2
aF2
aF2
aF2
aF2
aF2
aF2
aF2
aF2
aF2
aF2
aF2
aF2
aF2
aF2
aF2
aF2
aF2
aF2
aF2
aF2
aF2
aF2
aF2
aF2
aF2
aF2
aF2
aF2
aF2
aF2
aF2
aF2
aF2
aF2
aF2
aF2
aF2
aF2
aF2
aF2
aF2
aF2
aF2
aF2
aF2
aF2
aF2
aF2
aF2
aF2
aF2
aF2
aF2
aF2
aF2
aF2
aF2
aF2
aF2
aF2
aF2
aF2
aF2
aF2
aF2
aF2
aF2
aF2
aF2
aF2
aF2
aF2
aF2
aF2
aF2
aF2
aF2
aF2
aF2
aF2
aF2
aF2
aF2
aF2
aF2
aF2
aF2
aF2
aF2
aF2
aF2
aF2
aF2
aF2
aF2
aF2
aF2
aF2
aF2
aF2
aF2
aF2
aF2
aF2
aF2
aF2
aF2
aF2
aF2
aF2
aF2
aF2
aF2
aF2
aF2
aF2
aF2
aF2
aF2
aF2
aF2
aF2
aF2
aF2
aF2
aF2
aF2
aF2
aF2
aF2
aF2
aF2
aF2
aF2
aF2
aF2
aF2
aF2
aF2
aF2
aF2
aF2
aF2
aF2
aF2
aF2
aF2
aF2
aF2
aF2
aF2
aF2
aF2
aF2
aF2
aF2
aF2
aF2
aF2
aF2
aF2
aF2
aF2
aF2
aF2
aF2
aF2
aF2
aF2
aF2
aF2
aF2
aF2
aF2
aF2
aF2
aF2
aF2
aF2
aF2
aF2
aF2
aF2
aF2
aF2
aF2
aF2
aF2
aF2
aF2
aF2
aF2
aF2
aF2
aF2
aF2
aF2
aF2
aF2
aF2
aF2
aF2
aF2
aF2
aF2
aF2
aF2
aF2
aF2
aF2
aF2
aF2
aF2
aF2
aF2
aF2
aF2
aF2
aF2
aF2
aF2
aF2
aF2
aF2
aF2
aF2
aF2
aF2
aF2
aF2
aF2
aF2
aF2
aF2
aF2
aF2
aF2
aF2
aF2
aF2
aF2
aF2
aF2
aF2
aF2
aF2
aF2
aF2
aF2
aF2
aF2
aF2
aF2
aF2
aF2
aF2
aF2
aF2
aF2
aF2
aF2
aF2
aF2
aF2
aF2
aF2
aF2
aF2
aF2
aF2
aF2
aF2
aF2
aF2
aF2
aF2
aF2
aF2
aF2
aF2
aF2
aF2
aF2
aF2
aF2
aF2
aF2
aF2
aF2
aF2
aF2
aF2
aF2
aF2
aF2
aF2
aF2
aF2
aF2
aF2
aF2
aF2
aF2
aF2
aF2
aF2
aF2
aF2
aF2
aF2
aF2
aF2
aF2
aF2
aF2
aF2
aF2
aF2
aF2
aF2
aF2
aF2
aF2
aF2
aF2
aF2
aF2
aF2
aF2
aF2
aF2
aF2
aF2
aF2
aF2
aF2
aF2
aF2
aF2
aF2
aF2
aF2
aF2
aF2
aF2
aF2
aF2
aF2
aF2
aF2
aF2
aF2
aF2
aF2
aF2
aF2
aF2
aF2
aF2
aF2
aF2
aF2
aF2
aF2
aF2
aF2
aF2
aF2
aF2
aF2
aF2
aF2
aF2
aF2
aF2
aF2
aF2
aF2
aF2
aF2
aF2
aF2
aF2
aF2
aF2
aF2
aF2
aF2
aF2
aF2
aF2
aF2
aF2
aF2
aF2
aF2
aF2
aF2
aF2
aF2
aF2
aF2
aF2
aF2
aF2
aF2
aF2
aF2
aF2
aF2
aF2
aF2
aF2
aF2
aF2
aF2
aF2
aF2
aF2
aF2
aF2
aF2
aF2
aF2
aF2
aF2
aF2
aF2
aF2
aF2
aF2
aF2
aF2
aF2
aF2
aF2
aF2
aF2
aF2
aF2
aF2
aF2
aF2
aF2
aF2
aF2
aF2
aF2
aF2
aF2
aF2
aF2
aF2
aF2
aF2
aF2
aF2
aF2
aF2
aF2
aF2
aF2
aF2
aF2
aF2
aF2
aF2
aF2
aF2
aF2
aF2
aF2
aF2
aF2
aF2
aF2
aF2
aF2
aF2
aF2
aF2
aF2
aF2
aF2
aF2
aF2
aF2
aF2
aF2
aF2
aF2
aF2
aF2
aF2
aF2
aF2
aF2
aF2
aF2
aF2
aF2
aF2
aF2
aF2
aF2
aF2
aF2
aF2
aF2
aF2
aF2
aF2
aF2
aF2
aF2
aF2
aF2
aF2
aF2
aF2
aF2
aF2
aF2
aF2
aF2
aF2
aF2
aF2
aF2
aF2
aF2
aF2
aF2
aF2
aF2
aF2
aF2
aF2
aF2
aF2
aF2
aF2
aF2
aF2
aF2
aF2
aF2
aF2
aF2
aF2
aF2
aF2
aF2
aF2
aF2
aF2
aF2
aF2
aF2
aF2
aF2
aF2
aF2
aF2
aF2
aF2
aF2
aF2
aF2
aF2
aF2
aF2
aF2
aF2
aF2
aF2
aF2
aF2
aF2
aF2
aF2
aF2
aF2
aF2
aF2
aF2
aF2
aF2
aF2
aF2
aF2
aF2
aF2
aF2
aF2
aF2
aF2
aF2
aF2
aF2
aF2
aF2
aF2
aF2
aF2
aF2
aF2
aF2
aF2
aF2
aF2
aF2
aF2
aF2
aF2
aF2
aF2
aF2
aF2
aF2
aF2
aF2
aF2
aF2
aF2
aF2
aF2
aF2
aF2
aF2
aF2
aF2
aF2
aF2
aF2
aF2
aF2
aF2
aF2
aF2
aF2
aF2
aF2
aF2
aF2
aF2
aF2
aF2
aF2
aF2
aF2
aF2
aF2
aF2
aF2
aF2
aF2
aF2
aF2
aF2
aF2
aF2
aF2
aF2
aF2
aF2
aF2
aF2
aF2
aF2
aF2
aF2
aF2
aF2
aF2
aF2
aF2
aF2
aF2
aF2
aF2
aF2
aF2
aF2
aF2
aF2
aF2
aF2
aF2
aF2
aF2
aF2
aF2
aF2
aF2
aF2
aF2
aF2
aF2
aF2
aF2
aF2
aF2
aF2
aF2
aF2
aF2
aF2
aF2
aF2
aF2
aF2
aF2
aF2
aF2
aF2
aF2
aF2
aF2
aF2
aF2
aF2
aF2
aF2
aF2
aF2
aF2
aF2
aF2
aF2
aF2
aF2
aF2
aF2
aF2
aF2
aF2
aF2
aF2
aF2
aF2
aF2
aF2
aF2
aF2
aF2
aF2
aF2
aF2
aF2
aF2
aF2
aF2
aF2
aF2
aF2
aF2
aF2
aF2
aF2
aF2
aF2
aF2
aF2
aF2
aF2
aF2
aF2
aF2
aF2
aF2
aF2
aF2
aF2
aF2
aF2
aF2
aF2
aF2
aF2
aF2
aF2
aF2
aF2
aF2
aF2
aF2
aF2
aF2
aF2
aF2
aF2
aF2
aF2
aF2
aF2
aF2
aF2
aF2
aF2
aF2
aF2
aF2
aF2
aF2
aF2
aF2
aF2
aF2
aF2
aF2
aF2
aF2
aF2
aF2
aF2
aF2
aF2
aF2
aF2
aF2
aF2
aF2
aF2
aF2
aF2
aF2
aF2
aF2
aF2
aF2
aF2
aF2
aF2
aF2
aF2
aF2
aF2
aF2
aF2
aF2
aF2
aF2
aF2
aF2
aF2
aF2
aF2
aF2
aF2
aF2
aF2
aF2
aF2
aF2
aF2
aF2
aF2
aF2
aF2
aF2
aF2
aF2
aF2
aF2
aF2
aF2
aF2
aF2
aF2
aF2
aF2
aF2
aF2
aF2
aF2
aF2
aF2
aF2
aF2
aF2
aF2
aF2
aF2
aF2
aF2
aF2
aF2
aF2
aF2
aF2
aF2
aF2
aF2
aF2
aF2
aF2
aF2
aF2
aF2
aF2
aF2
aF2
aF2
aF2
aF2
aF2
aF2
aF2
aF2
aF2
aF2
aF2
aF2
aF2
aF2
aF2
aF2
aF2
aF2
aF2
aF2
aF2
aF2
aF2
aF2
aF2
aF2
aF2
aF2
aF2
aF2
aF2
aF2
aF2
aF2
aF2
aF2
aF2
aF2
aF2
aF2
aF2
aF2
aF2
aF2
aF2
aF2
aF2
aF2
aF2
aF2
aF2
aF2
aF2
aF2
aF2
aF2
aF2
aF2
aF2
aF2
aF2
aF2
aF2
aF2
aF2
aF2
aF2
aF2
aF2
aF2
aF2
aF2
aF2
aF2
aF2
aF2
aF2
aF2
aF2
aF2
aF2
aF2
aF2
aF2
aF2
aF2
aF2
aF2
aF2
aF2
aF2
aF2
aF2
aF2
aF2
aF2
aF2
aF2
aF2
aF2
aF2
aF2
aF2
aF2
aF2
aF2
aF2
aF2
aF2
aF2
aF2
aF2
aF2
aF2
aF2
aF2
aF2
aF2
aF2
aF2
aF2
aF2
aF2
aF2
aF2
aF2
aF2
aF2
aF2
aF2
aF2
aF2
aF2
aF2
aF2
aF2
aF2
aF2
aF2
aF2
aF2
aF2
aF2
aF2
aF2
aF2
aF2
aF2
aF2
aF2
aF2
aF2
aF2
aF2
aF2
aF2
aF2
aF2
aF2
aF2
aF2
aF2
aF2
aF2
aF2
aF2
aF2
aF2
aF2
aF2
aF2
aF2
aF2
aF2
aF2
aF2
aF2
aF2
aF2
aF2
aF2
aF2
aF2
aF2
aF2
aF2
aF2
aF2
aF2
aF2
aF2
aF2
aF2
aF2
aF2
aF2
aF2
aF2
aF2
aF2
aF2
aF2
aF2
aF2
aF2
aF2
aF2
aF2
aF2
aF2
aF2
aF2
aF2
aF2
aF2
aF2
aF2
aF2
aF2
aF2
aF2
aF2
aF2
aF2
aF2
aF2
aF2
aF2
aF2
aF2
aF2
aF2
aF2
aF2
aF2
aF2
aF2
aF2
aF2
aF2
aF2
aF2
aF2
aF2
aF2
aF2
aF2
aF2
aF2
aF2
aF2
aF2
aF2
aF2
aF2
aF2
aF2
aF2
aF2
aF2
aF2
aF2
aF2
aF2
aF2
aF2
aF2
aF2
aF2
aF2
aF2
aF2
aF2
aF2
aF2
aF2
aF2
aF2
aF2
aF2
aF2
aF2
aF2
aF2
aF2
aF2
aF2
aF2
aF2
aF2
aF2
aF2
aF2
aF2
aF2
aF2
aF2
aF2
aF2
aF2
aF2
aF2
aF2
aF2
aF2
aF2
aF2
aF2
aF2
aF2
aF2
aF2
aF2
aF2
aF2
aF2
aF2
aF2
aF2
aF2
aF2
aF2
aF2
aF2
aF2
aF2
aF2
aF2
aF2
aF2
aF2
aF2
aF2
aF2
aF2
aF2
aF2
aF2
aF2
aF2
aF2
aF2
aF2
aF2
aF2
aF2
aF2
aF2
aF2
aF2
aF2
aF2
aF2
aF2
aF2
aF2
aF2
aF2
aF2
aF2
aF2
aF2
aF2
aF2
aF2
aF2
aF2
aF2
aF2
aF2
aF2
aF2
aF2
aF2
aF2
aF2
aF2
aF2
aF2
aF2
aF2
aF2
aF2
aF2
aF2
aF2
aF2
aF2
aF2
aF2
aF2
aF2
aF2
aF2
aF2
aF2
aF2
aF2
aF2
aF2
aF2
aF2
aF2
aF2
aF2
aF2
aF2
aF2
aF2
aF2
aF2
aF2
aF2
aF2
aF2
aF2
aF2
aF2
aF2
aF2
aF2
aF2
aF2
aF2
aF2
aF2
aF2
aF2
aF2
aF2
aF2
aF2
aF2
aF2
aF2
aF2
aF2
aF2
aF2
aF2
aF2
aF2
aF2
aF2
aF2
aF2
aF2
aF2
aF2
aF2
aF2
aF2
aF2
aF2
aF2
aF2
aF2
aF2
aF2
aF2
aF2
aF2
aF2
aF2
aF2
aF2
aF2
aF2
aF2
aF2
aF2
aF2
aF2
aF2
aF2
aF2
aF2
aF2
aF2
aF2
aF2
aF2
aF2
aF2
aF2
aF2
aF2
aF2
aF2
aF2
aF2
aF2
aF2
aF2
aF2
aF2
aF2
aF2
aF2
aF2
aF2
aF2
aF2
aF2
aF2
aF2
aF2
aF2
aF2
aF2
aF2
aF2
aF2
aF2
aF2
aF2
aF2
aF2
aF2
aF2
aF2
aF2
aF2
aF2
aF2
aF2
aF2
aF2
aF2
aF2
aF2
aF2
aF2
aF2
aF2
aF2
aF2
aF2
aF2
aF2
aF2
aF2
aF2
aF2
aF2
aF2
aF2
aF2
aF2
aF2
aF2
aF2
aF2
aF2
aF2
aF2
aF2
aF2
aF2
aF2
aF2
aF2
aF2
aF2
aF2
aF2
aF2
aF2
aF2
aF2
aF2
aF2
aF2
aF2
aF2
aF2
aF2
aF2
aF2
aF2
aF2
aF2
aF2
aF2
aF2
aF2
aF2
aF2
aF2
aF2
aF2
aF2
aF2
aF2
aF2
aF2
aF2
aF2
aF2
aF2
aF2
aF2
aF2
aF2
aF2
aF2
aF2
aF2
aF2
aF2
aF2
aF2
aF2
aF2
aF2
aF2
aF2
aF2
aF2
aF2
aF2
aF2
aF2
aF2
aF2
aF2
aF2
aF2
aF2
aF2
aF2
aF2
aF2
aF2
aF2
aF2
aF2
aF2
aF2
aF2
aF2
aF2
aF2
aF2
aF2
aF2
aF2
aF2
aF2
aF2
aF2
aF2
aF2
aF2
aF2
aF2
aF2
aF2
aF2
aF2
aF2
aF2
aF2
aF2
aF2
aF2
aF2
aF2
aF2
aF2
aF2
aF2
aF2
aF2
aF2
aF2
aF2
aF2
aF2
aF2
aF2
aF2
aF2
aF2
aF2
aF2
aF2
aF2
aF2
aF2
aF2
aF2
aF2
aF2
aF2
aF2
aF2
aF2
aF2
aF2
aF2
aF2
aF2
aF2
aF2
aF2
aF2
aF2
aF2
aF2
aF2
aF2
aF2
aF2
aF2
aF2
aF2
aF2
aF2
aF2
aF2
aF2
aF2
aF2
aF2
aF2
aF2
aF2
aF2
aF2
aF2
aF2
aF2
aF2
aF2
aF2
aF2
aF2
aF2
aF2
aF2
aF2
aF2
aF2
aF2
aF2
aF2
aF2
aF2
aF2
aF2
aF2
aF2
aF2
aF2
aF2
aF2
aF2
aF2
aF2
aF2
aF2
aF2
aF2
aF2
aF2
aF2
aF2
aF2
aF2
aF2
aF2
aF2
aF2
aF2
aF2
aF2
aF2
aF2
aF2
aF2
aF2
aF2
aF2
aF2
aF2
aF2
aF2
aF2
aF2
aF2
aF2
aF2
aF2
aF2
aF2
aF2
aF2
aF2
aF2
aF2
aF2
aF2
aF2
aF2
aF2
aF2
aF2
aF2
aF2
aF2
aF2
aF2
aF2
aF2
aF2
aF2
aF2
aF2
aF2
aF2
aF2
aF2
aF2
aF2
aF2
aF2
aF2
aF2
aF2
aF2
aF2
aF2
aF2
aF2
aF2
aF2
aF2
aF2
aF2
aF2
aF2
aF2
aF2
aF2
aF2
aF2
aF2
aF2
aF2
aF2
aF2
aF2
aF2
aF2
aF2
aF2
aF2
aF2
aF2
aF2
aF2
aF2
aF2
aF2
aF2
aF2
aF2
aF2
aF2
aF2
aF2
aF2
aF2
aF2
aF2
aF2
aF2
aF2
aF2
aF2
aF2
aF2
aF2
aF2
aF2
aF2
aF2
aF2
aF2
aF2
aF2
aF2
aF2
aF2
aF2
aF2
aF2
aF2
aF2
aF2
aF2
aF2
aF2
aF2
aF2
aF2
aF2
aF2
aF2
aF2
aF2
aF2
aF2
aF2
aF2
aF2
aF2
aF2
aF2
aF2
aF2
aF2
aF2
aF2
aF2
aF2
aF2
aF2
aF2
aF2
aF2
aF2
aF2
aF2
aF2
aF2
aF2
aF2
aF2
aF2
aF2
aF2
aF2
aF2
aF2
aF2
aF2
aF2
aF2
aF2
aF2
aF2
aF2
aF2
aF2
aF2
aF2
aF2
aF2
aF2
aF2
aF2
aF2
aF2
aF2
aF2
aF2
aF2
aF2
aF2
aF2
aF2
aF2
aF2
aF2
aF2
aF2
aF2
aF2
aF2
aF2
aF2
aF2
aF2
aF2
aF2
aF2
aF2
aF2
aF2
aF2
aF2
aF2
aF2
aF2
aF2
aF2
aF2
aF2
aF2
aF2
aF2
aF2
aF2
aF2
aF2
aF2
aF2
aF2
aF2
aF2
aF2
aF2
aF2
aF2
aF2
aF2
aF2
aF2
aF2
aF2
aF2
aF2
aF2
aF2
aF2
aF2
aF2
aF2
aF2
aF2
aF2
aF2
aF2
aF2
aF2
aF2
aF2
aF2
aF2
aF2
aF2
aF2
aF2
aF2
aF2
aF2
aF2
aF2
aF2
aF2
aF2
aF2
aF2
aF2
aF2
aF2
aF2
aF2
aF2
aF2
aF2
aF2
aF2
aF2
aF2
aF2
aF2
aF2
aF2
aF2
aF2
aF2
aF2
aF2
aF2
aF2
aF2
aF2
aF2
aF2
aF2
aF2
aF2
aF2
aF2
aF2
aF2
aF2
aF2
aF2
aF2
aF2
aF2
aF2
aF2
aF2
aF2
aF2
aF2
aF2
aF2
aF2
aF2
aF2
aF2
aF2
aF2
aF2
aF2
aF2
aF2
aF2
aF2
aF2
aF2
aF2
aF2
aF2
aF2
aF2
aF2
aF2
aF2
aF2
aF2
aF2
aF2
aF2
aF2
aF2
aF2
aF2
aF2
aF2
aF2
aF2
aF2
aF2
aF2
aF2
aF2
aF2
aF2
aF2
aF2
aF2
aF2
aF2
aF2
aF2
aF2
aF2
aF2
aF2
aF2
aF2
aF2
aF2
aF2
aF2
aF2
aF2
aF2
aF2
aF2
aF2
aF2
aF2
aF2
aF2
aF2
aF2
aF2
aF2
aF2
aF2
aF2
aF2
aF2
aF2
aF2
aF2
aF2
aF2
aF2
aF2
aF2
aF2
aF2
aF2
aF2
aF2
aF2
aF2
aF2
aF2
aF2
aF2
aF2
aF2
aF2
aF2
aF2
aF2
aF2
aF2
aF2
aF2
aF2
aF2
aF2
aF2
aF2
aF2
aF2
aF2
aF2
aF2
aF2
aF2
aF2
aF2
aF2
aF2
aF2
aF2
aF2
aF2
aF2
aF2
aF2
aF2
aF2
aF2
aF2
aF2
aF2
aF2
aF2
aF2
aF2
aF2
aF2
aF2
aF2
aF2
aF2
aF2
aF2
aF2
aF2
aF2
aF2
aF2
aF2
aF2
aF2
aF2
aF2
aF2
aF2
aF2
aF2
aF2
aF2
aF2
aF2
aF2
aF2
aF2
aF2
aF2
aF2
aF2
aF2
aF2
aF2
aF2
aF2
aF2
aF2
aF2
aF2
aF2
aF2
aF2
aF2
aF2
aF2
aF2
aF2
aF2
aF2
aF2
aF2
aF2
aF2
aF2
aF2
aF2
aF2
aF2
aF2
aF2
aF2
aF2
aF2
aF2
aF2
aF2
aF2
aF2
aF2
aF2
aF2
aF2
aF2
aF2
aF2
aF2
aF2
aF2
aF2
aF2
aF2
aF2
aF2
aF2
aF2
aF2
aF2
aF2
aF2
aF2
aF2
aF2
aF2
aF2
aF2
aF2
aF2
aF2
aF2
aF2
aF2
aF2
aF2
aF2
aF2
aF2
aF2
aF2
aF2
aF2
aF2
aF2
aF2
aF2
aF2
aF2
aF2
aF2
aF2
aF2
aF2
aF2
aF2
aF2
aF2
aF2
aF2
aF2
aF2
aF2
aF2
aF2
aF2
aF2
aF2
aF2
aF2
aF2
aF2
aF2
aF2
aF2
aF2
aF2
aF2
aF2
aF2
aF2
aF2
aF2
aF2
aF2
aF2
aF2
aF2
aF2
aF2
aF2
aF2
aF2
aF2
aF2
aF2
aF2
aF2
aF2
aF2
aF2
aF2
aF2
aF2
aF2
aF2
aF2
aF2
aF2
aF2
aF2
aF2
aF2
aF2
aF2
aF2
aF2
aF2
aF2
aF2
aF2
aF2
aF2
aF2
aF2
aF2
aF2
aF2
aF2
aF2
aF2
aF2
aF2
aF2
aF2
aF2
aF2
aF2
aF2
aF2
aF2
aF2
aF2
aF2
aF2
aF2
aF2
aF2
aF2
aF2
aF2
aF2
aF2
aF2
aF2
aF2
aF2
aF2
aF2
aF2
aF2
aF2
aF2
aF2
aF2
aF2
aF2
aF2
aF2
aF2
aF2
aF2
aF2
aF2
aF2
aF2
aF2
aF2
aF2
aF2
aF2
aF2
aF2
aF2
aF2
aF2
aF2
aF2
aF2
aF2
aF2
aF2
aF2
aF2
aF2
aF2
aF2
aF2
aF2
aF2
aF2
aF2
aF2
aF2
aF2
aF2
aF2
aF2
aF2
aF2
aF2
aF2
aF2
aF2
aF2
aF2
aF2
aF2
aF2
aF2
aF2
aF2
aF2
aF2
aF2
aF2
aF2
aF2
aF2
aF2
aF2
aF2
aF2
aF2
aF2
aF2
aF2
aF2
aF2
aF2
aF2
aF2
aF2
aF2
aF2
aF2
aF2
aF2
aF2
aF2
aF2
aF2
aF2
aF2
aF2
aF2
aF2
aF2
aF2
aF2
aF2
aF2
aF2
aF2
aF2
aF2
aF2
aF2
aF2
aF2
aF2
aF2
aF2
aF2
aF2
aF2
aF2
aF2
aF2
aF2
aF2
aF2
aF2
aF2
aF2
aF2
aF2
aF2
aF2
aF2
aF2
aF2
aF2
aF2
aF2
aF2
aF2
aF2
aF2
aF2
aF2
aF2
aF2
aF2
aF2
aF2
aF2
aF2
aF2
aF2
aF2
aF2
aF2
aF2
aF2
aF2
aF2
aF2
aF2
aF2
aF2
aF2
aF2
aF2
aF2
aF2
aF2
aF2
aF2
aF2
aF2
aF2
aF2
aF2
aF2
aF2
aF2
aF2
aF2
aF2
aF2
aF2
aF2
aF2
aF2
aF2
aF2
aF2
aF2
aF2
aF2
aF2
aF2
aF2
aF2
aF2
aF2
aF2
aF2
aF2
aF2
aF2
aF2
aF2
aF2
aF2
aF2
aF2
aF2
aF2
aF2
aF2
aF2
aF2
aF2
aF2
aF2
aF2
aF2
aF2
aF2
aF2
aF2
aF2
aF2
aF2
aF2
aF2
aF2
aF2
aF2
aF2
aF2
aF2
aF2
aF2
aF2
aF2
aF2
aF2
aF2
aF2
aF2
aF2
aF2
aF2
aF2
aF2
aF2
aF2
aF2
aF2
aF2
aF2
aF2
aF2
aF2
aF2
aF2
aF2
aF2
aF2
aF2
aF2
aF2
aF2
aF2
aF2
aF2
aF2
aF2
aF2
aF2
aF2
aF2
aF2
aF2
aF2
aF2
aF2
aF2
aF2
aF2
aF2
aF2
aF2
aF2
aF2
aF2
aF2
aF2
aF2
aF2
aF2
aF2
aF2
aF2
aF2
aF2
aF2
aF2
aF2
aF2
aF2
aF2
aF2
aF2
aF2
aF2
aF2
aF2
aF2
aF2
aF2
aF2
aF2
aF2
aF2
aF2
aF2
aF2
aF2
aF2
aF2
aF2
aF2
aF2
aF2
aF2
aF2
aF2
aF2
aF2
aF2
aF2
aF2
aF2
aF2
aF2
aF2
aF2
aF2
aF2
aF2
aF2
aF2
aF2
aF2
aF2
aF2
aF2
aF2
aF2
aF2
aF2
aF2
aF2
aF2
aF2
aF2
aF2
aF2
aF2
aF2
aF2
aF2
aF2
aF2
aF2
aF2
aF2
aF2
aF2
aF2
aF2
aF2
aF2
aF2
aF2
aF2
aF2
aF2
aF2
aF2
aF2
aF2
aF2
aF2
aF2
aF2
aF2
aF2
aF2
aF2
aF2
aF2
aF2
aF2
aF2
aF2
aF2
aF2
aF2
aF2
aF2
aF2
aF2
aF2
aF2
aF2
aF2
aF2
aF2
aF2
aF2
aF2
aF2
aF2
aF2
aF2
aF2
aF2
aF2
aF2
aF2
aF2
aF2
aF2
aF2
aF2
aF2
aF2
aF2
aF2
aF2
aF2
aF2
aF2
aF2
aF2
aF2
aF2
aF2
aF2
aF2
aF2
aF2
aF2
aF2
aF2
aF2
aF2
aF2
aF2
aF2
aF2
aF2
aF2
aF2
aF2
aF2
aF2
aF2
aF2
aF2
aF2
aF2
aF2
aF2
aF2
aF2
aF2
aF2
aF2
aF2
aF2
aF2
aF2
aF2
aF2
aF2
aF2
aF2
aF2
aF2
aF2
aF2
aF2
aF2
aF2
aF2
aF2
aF2
aF2
aF2
aF2
aF2
aF2
aF2
aF2
aF2
aF2
aF2
aF2
aF2
aF2
aF2
aF2
aF2
aF2
aF2
aF2
aF2
aF2
aF2
aF2
aF2
aF2
aF2
aF2
aF2
aF2
aF2
aF2
aF2
aF2
aF2
aF2
aF2
aF2
aF2
aF2
aF2
aF2
aF2
aF2
aF2
aF2
aF2
aF2
aF2
aF2
aF2
aF2
aF2
aF2
aF2
aF2
aF2
aF2
aF2
aF2
aF2
aF2
aF2
aF2
aF2
aF2
aF2
aF2
aF2
aF2
aF2
aF2
aF2
aF2
aF2
aF2
aF2
aF2
aF2
aF2
aF2
aF2
aF2
aF2
aF2
aF2
aF2
aF2
aF2
aF2
aF2
aF2
aF2
aF2
aF2
aF2
aF2
aF2
aF2
aF2
aF2
aF2
aF2
aF2
aF2
aF2
aF2
aF2
aF2
aF2
aF2
aF2
aF2
aF2
aF2
aF2
aF2
aF2
aF2
aF2
aF2
aF2
aF2
aF2
aF2
aF2
aF2
aF2
aF2
aF2
aF2
aF2
aF2
aF2
aF2
aF2
aF2
aF2
aF2
aF2
aF2
aF2
aF2
aF2
aF2
aF2
aF2
aF2
aF2
aF2
aF2
aF2
aF2
aF2
aF2
aF2
aF2
aF2
aF2
aF2
aF2
aF2
aF2
aF2
aF2
aF2
aF2
aF2
aF2
aF2
aF2
aF2
aF2
aF2
aF2
aF2
aF2
aF2
aF2
aF2
aF2
aF2
aF2
aF2
aF2
aF2
aF2
aF2
aF2
aF2
aF2
aF2
aF2
aF2
aF2
aF2
aF2
aF2
aF2
aF2
aF2
aF2
aF2
aF2
aF2
aF2
aF2
aF2
aF2
aF2
aF2
aF2
aF2
aF2
aF2
aF2
aF2
aF2
aF2
aF2
aF2
aF2
aF2
aF2
aF2
aF2
aF2
aF2
aF2
aF2
aF2
aF2
aF2
aF2
aF2
aF2
aF2
aF2
aF2
aF2
aF2
aF2
aF2
aF2
aF2
aF2
aF2
aF2
aF2
aF2
aF2
aF2
aF2
aF2
aF2
aF2
aF2
aF2
aF2
aF2
aF2
aF2
aF2
aF2
aF2
aF2
aF2
aF2
aF2
aF2
aF2
aF2
aF2
aF2
aF2
aF2
aF2
aF2
aF2
aF2
aF2
aF2
aF2
aF2
aF2
aF2
aF2
aF2
aF2
aF2
aF2
aF2
aF2
aF2
aF2
aF2
aF2
aF2
aF2
aF2
aF2
aF2
aF2
aF2
aF2
aF2
aF2
aF2
aF2
aF2
aF2
aF2
aF2
aF2
aF2
aF2
aF2
aF2
aF2
aF2
aF2
aF2
aF2
aF2
aF2
aF2
aF2
aF2
aF2
aF2
aF2
aF2
aF2
aF2
aF2
aF2
aF2
aF2
aF2
aF2
aF2
aF2
aF2
aF2
aF2
aF2
aF2
aF2
aF2
aF2
aF2
aF2
aF2
aF2
aF2
aF2
aF2
aF2
aF2
aF2
aF2
aF2
aF2
aF2
aF2
aF2
aF2
aF2
aF2
aF2
aF2
aF2
aF2
aF2
aF2
aF2
aF2
aF2
aF2
aF2
aF2
aF2
aF2
aF2
aF2
aF2
aF2
aF2
aF2
aF2
aF2
aF2
aF2
aF2
aF2
aF2
aF2
aF2
aF2
aF2
aF2
aF2
aF2
aF2
aF2
as.