(dp0
S'frames'
p1
I924
sS'zangle'
p2
(lp3
F-78
aF-78
aF-78
aF-78
aF-78
aF-78
aF-78
aF-78
aF-78
aF-78
aF-78
aF-78
aF-78
aF-78
aF-78
aF-78
aF-78
aF-78
aF-78
aF-78
aF-78
aF-78
aF-78
aF-78
aF-78
aF-78
aF-78
aF-78
aF-78
aF-78
aF-78
aF-78
aF-78
aF-78
aF-78
aF-78
aF-78
aF-78
aF-78
aF-78
aF-78
aF-78
aF-78
aF-78
aF-78
aF-78
aF-78
aF-78
aF-78
aF-78
aF-78
aF-78
aF-78
aF-78
aF-78
aF-78
aF-78
aF-78
aF-78
aF-78
aF-78
aF-78
aF-78
aF-78
aF-78
aF-78
aF-78
aF-78
aF-78
aF-78
aF-78
aF-78
aF-78
aF-78
aF-78
aF-78
aF-78
aF-78
aF-78
aF-78
aF-78
aF-78
aF-78
aF-78
aF-78
aF-78
aF-78
aF-78
aF-78
aF-78
aF-78
aF-78
aF-78
aF-78
aF-78
aF-78
aF-78
aF-78
aF-78
aF-78
aF-78
aF-78
aF-78
aF-78
aF-78
aF-78
aF-78
aF-78
aF-78
aF-78
aF-78
aF-78
aF-78
aF-78
aF-78
aF-78
aF-78
aF-78
aF-78
aF-78
aF-78
aF-78
aF-78
aF-78
aF-78
aF-78
aF-78
aF-78
aF-78
aF-78
aF-78
aF-78
aF-78
aF-78
aF-78
aF-78
aF-78
aF-78
aF-78
aF-78
aF-78
aF-78
aF-78
aF-78
aF-78
aF-78
aF-78
aF-78
aF-78
aF-78
aF-78
aF-78
aF-78
aF-78
aF-78
aF-78
aF-78
aF-78
aF-78
aF-78
aF-78
aF-78
aF-78
aF-78
aF-78
aF-78
aF-78
aF-78
aF-78
aF-78
aF-78
aF-78
aF-78
aF-78
aF-78
aF-78
aF-78
aF-78
aF-78
aF-78
aF-78
aF-78
aF-78
aF-78
aF-78
aF-78
aF-78
aF-78
aF-78
aF-78
aF-78
aF-78
aF-78
aF-78
aF-78
aF-78
aF-78
aF-78
aF-78
aF-78
aF-78
aF-78
aF-78
aF-78
aF-78
aF-78
aF-78
aF-78
aF-78
aF-78
aF-78
aF-78
aF-78
aF-78
aF-78
aF-78
aF-78
aF-78
aF-78
aF-78
aF-78
aF-78
aF-78
aF-78
aF-77
aF-77
aF-77
aF-77
aF-77
aF-77
aF-77
aF-77
aF-77
aF-77
aF-77
aF-77
aF-77
aF-77
aF-77
aF-77
aF-77
aF-77
aF-77
aF-77
aF-77
aF-77
aF-77
aF-77
aF-77
aF-77
aF-77
aF-77
aF-77
aF-77
aF-77
aF-77
aF-77
aF-77
aF-77
aF-77
aF-77
aF-77
aF-77
aF-77
aF-77
aF-77
aF-77
aF-77
aF-77
aF-77
aF-77
aF-77
aF-77
aF-77
aF-77
aF-77
aF-77
aF-77
aF-77
aF-78
aF-78
aF-78
aF-78
aF-78
aF-78
aF-78
aF-78
aF-78
aF-78
aF-78
aF-78
aF-78
aF-78
aF-78
aF-78
aF-78
aF-78
aF-78
aF-79
aF-79
aF-79
aF-79
aF-79
aF-79
aF-79
aF-79
aF-79
aF-79
aF-79
aF-79
aF-79
aF-79
aF-80
aF-80
aF-80
aF-80
aF-80
aF-80
aF-80
aF-80
aF-80
aF-80
aF-80
aF-80
aF-80
aF-80
aF-80
aF-80
aF-80
aF-80
aF-80
aF-80
aF-80
aF-80
aF-80
aF-80
aF-79
aF-79
aF-79
aF-79
aF-79
aF-79
aF-79
aF-79
aF-79
aF-79
aF-79
aF-79
aF-79
aF-79
aF-79
aF-79
aF-79
aF-79
aF-79
aF-79
aF-79
aF-79
aF-79
aF-79
aF-79
aF-79
aF-79
aF-79
aF-79
aF-79
aF-79
aF-79
aF-80
aF-80
aF-80
aF-80
aF-80
aF-80
aF-80
aF-80
aF-80
aF-80
aF-80
aF-80
aF-80
aF-80
aF-80
aF-80
aF-80
aF-80
aF-80
aF-80
aF-80
aF-80
aF-80
aF-80
aF-80
aF-80
aF-80
aF-80
aF-81
aF-81
aF-81
aF-81
aF-81
aF-81
aF-81
aF-81
aF-81
aF-81
aF-81
aF-81
aF-81
aF-81
aF-81
aF-81
aF-81
aF-81
aF-81
aF-81
aF-81
aF-81
aF-81
aF-81
aF-81
aF-81
aF-81
aF-81
aF-81
aF-81
aF-81
aF-81
aF-81
aF-81
aF-81
aF-81
aF-81
aF-81
aF-81
aF-81
aF-81
aF-81
aF-81
aF-81
aF-81
aF-81
aF-81
aF-81
aF-81
aF-81
aF-81
aF-81
aF-81
aF-81
aF-81
aF-81
aF-81
aF-81
aF-81
aF-81
aF-81
aF-81
aF-81
aF-81
aF-81
aF-81
aF-81
aF-81
aF-81
aF-81
aF-81
aF-81
aF-81
aF-81
aF-81
aF-79
aF-79
aF-79
aF-79
aF-79
aF-79
aF-81
aF-81
aF-81
aF-81
aF-81
aF-81
aF-81
aF-81
aF-81
aF-81
aF-81
aF-81
aF-81
aF-81
aF-81
aF-81
aF-81
aF-81
aF-81
aF-81
aF-81
aF-81
aF-81
aF-81
aF-81
aF-81
aF-81
aF-81
aF-81
aF-81
aF-81
aF-81
aF-81
aF-81
aF-81
aF-81
aF-81
aF-81
aF-81
aF-81
aF-81
aF-81
aF-81
aF-81
aF-81
aF-81
aF-81
aF-81
aF-81
aF-81
aF-81
aF-81
aF-81
aF-81
aF-81
aF-81
aF-81
aF-81
aF-81
aF-81
aF-81
aF-81
aF-81
aF-81
aF-81
aF-81
aF-81
aF-81
aF-81
aF-81
aF-81
aF-81
aF-81
aF-81
aF-81
aF-81
aF-81
aF-81
aF-81
aF-81
aF-81
aF-81
aF-81
aF-81
aF-81
aF-81
aF-81
aF-81
aF-81
aF-81
aF-81
aF-81
aF-81
aF-81
aF-81
aF-81
aF-81
aF-81
aF-81
aF-81
aF-81
aF-81
aF-81
aF-81
aF-81
aF-81
aF-81
aF-81
aF-81
aF-81
aF-81
aF-81
aF-81
aF-81
aF-81
aF-81
aF-81
aF-81
aF-81
aF-81
aF-81
aF-81
aF-81
aF-81
aF-81
aF-81
aF-81
aF-81
aF-81
aF-81
aF-81
aF-81
aF-81
aF-81
aF-81
aF-81
aF-81
aF-81
aF-81
aF-81
aF-81
aF-81
aF-81
aF-81
aF-81
aF-81
aF-81
aF-81
aF-81
aF-81
aF-81
aF-81
aF-81
aF-81
aF-81
aF-81
aF-81
aF-81
aF-81
aF-81
aF-81
aF-81
aF-81
aF-81
aF-81
aF-81
aF-81
aF-81
aF-81
aF-81
aF-81
aF-81
aF-81
aF-81
aF-81
aF-81
aF-81
aF-81
aF-81
aF-81
aF-81
aF-81
aF-81
aF-81
aF-81
aF-81
aF-81
aF-81
aF-81
aF-81
aF-81
aF-81
aF-81
aF-81
aF-81
aF-81
aF-81
aF-81
aF-81
aF-81
aF-81
aF-81
aF-81
aF-81
aF-81
aF-81
aF-81
aF-81
aF-81
aF-81
aF-81
aF-81
aF-81
aF-81
aF-81
aF-81
aF-81
aF-81
aF-81
aF-81
aF-81
aF-81
aF-81
aF-81
aF-81
aF-81
aF-81
aF-81
aF-81
aF-81
aF-81
aF-81
aF-81
aF-81
aF-81
aF-81
aF-81
aF-81
aF-81
aF-81
aF-81
aF-81
aF-81
aF-81
aF-81
aF-80
aF-80
aF-80
aF-80
aF-80
aF-80
aF-80
aF-80
aF-80
aF-80
aF-80
aF-80
aF-80
aF-80
aF-80
aF-80
aF-80
aF-80
aF-80
aF-80
aF-80
aF-80
aF-80
aF-80
aF-80
aF-80
aF-80
aF-80
aF-80
aF-80
aF-80
aF-80
aF-80
aF-80
aF-80
aF-80
aF-80
aF-80
aF-80
aF-80
aF-80
aF-80
aF-80
aF-80
aF-80
aF-80
aF-80
aF-80
aF-80
aF-80
aF-80
aF-80
aF-80
aF-80
aF-80
aF-80
aF-80
aF-80
aF-80
aF-80
aF-80
aF-80
aF-80
aF-80
aF-80
aF-80
aF-80
aF-80
aF-80
aF-80
aF-80
aF-80
aF-80
aF-80
aF-80
aF-80
aF-80
aF-80
aF-80
aF-80
aF-80
aF-79
aF-79
aF-79
aF-79
aF-79
aF-79
aF-79
aF-79
aF-79
aF-79
aF-79
aF-79
aF-79
aF-79
aF-79
aF-79
aF-79
aF-79
aF-79
aF-79
aF-79
aF-79
aF-79
aF-79
aF-79
aF-79
aF-79
aF-79
aF-79
aF-79
aF-79
aF-79
aF-79
aF-78
aF-78
aF-78
aF-78
aF-78
aF-78
aF-78
aF-78
aF-78
aF-78
aF-78
aF-78
aF-78
aF-78
aF-78
aF-78
aF-78
aF-77
aF-77
aF-77
aF-77
aF-77
aF-77
aF-77
aF-77
aF-77
aF-77
aF-77
aF-77
aF-77
aF-77
aF-77
aF-77
aF-77
aF-77
aF-77
aF-77
aF-77
aF-77
aF-77
aF-77
aF-77
aF-77
aF-77
aF-77
aF-77
aF-77
aF-77
aF-77
aF-77
aF-76
aF-76
aF-76
aF-76
aF-76
aF-76
aF-76
aF-76
aF-76
aF-76
aF-76
aF-76
aF-76
aF-76
aF-76
aF-76
aF-76
aF-76
aF-76
aF-76
aF-76
aF-76
aF-76
aF-76
aF-76
aF-76
aF-76
aF-76
aF-76
aF-77
aF-77
aF-77
aF-77
aF-77
aF-77
aF-77
aF-77
aF-77
asS'xangle'
p4
(lp5
F2
aF2
aF2
aF2
aF2
aF2
aF2
aF2
aF2
aF2
aF2
aF2
aF2
aF2
aF2
aF2
aF2
aF2
aF2
aF2
aF2
aF2
aF2
aF2
aF2
aF2
aF2
aF2
aF2
aF2
aF2
aF2
aF2
aF2
aF2
aF2
aF2
aF2
aF2
aF2
aF2
aF2
aF2
aF2
aF2
aF2
aF2
aF2
aF2
aF2
aF2
aF2
aF2
aF2
aF2
aF2
aF2
aF2
aF2
aF2
aF2
aF2
aF2
aF2
aF2
aF2
aF2
aF2
aF2
aF2
aF2
aF2
aF2
aF2
aF2
aF2
aF2
aF2
aF2
aF2
aF2
aF2
aF2
aF2
aF2
aF2
aF2
aF2
aF2
aF2
aF2
aF2
aF2
aF2
aF2
aF2
aF2
aF2
aF2
aF2
aF2
aF2
aF2
aF2
aF2
aF2
aF2
aF2
aF2
aF2
aF2
aF2
aF2
aF2
aF2
aF2
aF2
aF2
aF2
aF2
aF2
aF2
aF2
aF2
aF2
aF2
aF2
aF2
aF2
aF2
aF2
aF2
aF2
aF2
aF2
aF2
aF2
aF2
aF2
aF2
aF2
aF2
aF2
aF2
aF2
aF2
aF2
aF2
aF2
aF2
aF2
aF2
aF2
aF2
aF2
aF2
aF2
aF2
aF2
aF2
aF2
aF2
aF2
aF2
aF2
aF2
aF2
aF2
aF2
aF2
aF2
aF2
aF2
aF2
aF2
aF2
aF2
aF2
aF2
aF2
aF2
aF2
aF2
aF2
aF2
aF2
aF2
aF2
aF2
aF2
aF2
aF2
aF2
aF2
aF2
aF2
aF2
aF2
aF2
aF2
aF2
aF2
aF2
aF2
aF2
aF2
aF2
aF2
aF2
aF2
aF2
aF2
aF2
aF2
aF2
aF2
aF2
aF2
aF2
aF2
aF2
aF2
aF2
aF2
aF2
aF2
aF2
aF2
aF2
aF2
aF2
aF2
aF2
aF2
aF2
aF2
aF2
aF2
aF2
aF2
aF2
aF2
aF2
aF2
aF2
aF2
aF2
aF2
aF2
aF2
aF2
aF2
aF2
aF2
aF2
aF2
aF2
aF2
aF2
aF2
aF2
aF2
aF2
aF2
aF2
aF2
aF2
aF2
aF2
aF2
aF2
aF2
aF2
aF2
aF2
aF2
aF2
aF2
aF2
aF2
aF2
aF2
aF2
aF2
aF2
aF2
aF2
aF2
aF2
aF2
aF2
aF2
aF2
aF2
aF2
aF2
aF2
aF2
aF2
aF2
aF2
aF2
aF2
aF2
aF2
aF2
aF2
aF2
aF2
aF2
aF2
aF2
aF2
aF2
aF2
aF2
aF2
aF2
aF2
aF2
aF2
aF2
aF2
aF2
aF2
aF2
aF2
aF2
aF2
aF2
aF2
aF2
aF2
aF2
aF2
aF2
aF2
aF2
aF2
aF2
aF2
aF2
aF2
aF2
aF2
aF2
aF2
aF2
aF2
aF2
aF2
aF2
aF2
aF2
aF2
aF2
aF2
aF2
aF2
aF2
aF2
aF2
aF2
aF2
aF2
aF2
aF2
aF2
aF2
aF2
aF2
aF2
aF2
aF2
aF2
aF2
aF2
aF2
aF2
aF2
aF2
aF2
aF2
aF2
aF2
aF2
aF2
aF2
aF2
aF2
aF2
aF2
aF2
aF2
aF2
aF2
aF2
aF2
aF2
aF2
aF2
aF2
aF2
aF2
aF2
aF2
aF2
aF2
aF2
aF2
aF2
aF2
aF2
aF2
aF2
aF2
aF2
aF2
aF2
aF2
aF2
aF2
aF2
aF2
aF2
aF2
aF2
aF2
aF2
aF2
aF2
aF2
aF2
aF2
aF2
aF2
aF2
aF2
aF2
aF2
aF2
aF2
aF2
aF2
aF2
aF2
aF2
aF2
aF2
aF2
aF2
aF2
aF2
aF2
aF2
aF2
aF2
aF2
aF2
aF2
aF2
aF2
aF2
aF2
aF2
aF2
aF2
aF2
aF2
aF2
aF2
aF2
aF2
aF2
aF2
aF2
aF2
aF2
aF2
aF2
aF2
aF2
aF2
aF2
aF2
aF2
aF2
aF2
aF2
aF2
aF2
aF2
aF2
aF2
aF2
aF2
aF2
aF2
aF2
aF2
aF2
aF2
aF2
aF2
aF2
aF2
aF2
aF2
aF2
aF2
aF2
aF2
aF2
aF2
aF2
aF2
aF2
aF2
aF2
aF2
aF2
aF2
aF2
aF2
aF2
aF2
aF2
aF2
aF2
aF2
aF2
aF2
aF2
aF2
aF2
aF2
aF2
aF2
aF2
aF2
aF2
aF2
aF2
aF2
aF2
aF2
aF2
aF2
aF2
aF2
aF2
aF2
aF2
aF2
aF2
aF2
aF2
aF2
aF2
aF2
aF2
aF2
aF2
aF2
aF2
aF2
aF2
aF2
aF2
aF2
aF2
aF2
aF2
aF2
aF2
aF2
aF2
aF2
aF2
aF2
aF2
aF2
aF2
aF2
aF2
aF2
aF2
aF2
aF2
aF2
aF2
aF2
aF2
aF2
aF2
aF2
aF2
aF2
aF2
aF2
aF2
aF2
aF2
aF2
aF2
aF2
aF2
aF2
aF2
aF2
aF2
aF2
aF2
aF2
aF2
aF2
aF2
aF2
aF2
aF2
aF2
aF2
aF2
aF2
aF2
aF2
aF2
aF2
aF2
aF2
aF2
aF2
aF2
aF2
aF2
aF2
aF2
aF2
aF2
aF2
aF2
aF2
aF2
aF2
aF2
aF2
aF2
aF2
aF2
aF2
aF2
aF2
aF2
aF2
aF2
aF2
aF2
aF2
aF2
aF2
aF2
aF2
aF2
aF2
aF2
aF2
aF2
aF2
aF2
aF2
aF2
aF2
aF2
aF2
aF2
aF2
aF2
aF2
aF2
aF2
aF2
aF2
aF2
aF2
aF2
aF2
aF2
aF2
aF2
aF2
aF2
aF2
aF2
aF2
aF2
aF2
aF2
aF2
aF2
aF2
aF2
aF2
aF2
aF2
aF2
aF2
aF2
aF2
aF2
aF2
aF2
aF2
aF2
aF2
aF2
aF2
aF2
aF2
aF2
aF2
aF2
aF2
aF2
aF2
aF2
aF2
aF2
aF2
aF2
aF2
aF2
aF2
aF2
aF2
aF2
aF2
aF2
aF2
aF2
aF2
aF2
aF2
aF2
aF2
aF2
aF2
aF2
aF2
aF2
aF2
aF2
aF2
aF2
aF2
aF2
aF2
aF2
aF2
aF2
aF2
aF2
aF2
aF2
aF2
aF2
aF2
aF2
aF2
aF2
aF2
aF2
aF2
aF2
aF2
aF2
aF2
aF2
aF2
aF2
aF2
aF2
aF2
aF2
aF2
aF2
aF2
aF2
aF2
aF2
aF2
aF2
aF2
aF2
aF2
aF2
aF2
aF2
aF2
aF2
aF2
aF2
aF2
aF2
aF2
aF2
aF2
aF2
aF2
aF2
aF2
aF2
aF2
aF2
aF2
aF2
aF2
aF2
aF2
aF2
aF2
aF2
aF2
aF2
aF2
aF2
aF2
aF2
aF2
aF2
aF2
aF2
aF2
aF2
aF2
aF2
aF2
aF2
aF2
aF2
aF2
aF2
aF2
aF2
aF2
aF2
aF2
aF2
aF2
aF2
aF2
aF2
aF2
aF2
aF2
aF2
aF2
aF2
aF2
aF2
aF2
aF2
aF2
aF2
aF2
aF2
aF2
aF2
aF2
aF2
aF2
aF2
aF2
aF2
aF2
aF2
aF2
aF2
aF2
aF2
aF2
aF2
aF2
aF2
aF2
aF2
aF2
aF2
aF2
aF2
aF2
aF2
aF2
aF2
aF2
aF2
aF2
aF2
aF2
aF2
aF2
aF2
aF2
aF2
aF2
aF2
aF2
aF2
aF2
aF2
aF2
aF2
aF2
aF2
aF2
aF2
aF2
aF2
aF2
aF2
aF2
aF2
aF2
aF2
aF2
as.