(dp0
S'frames'
p1
I1711
sS'xangle'
p2
(lp3
F2
aF2
aF2
aF2
aF2
aF2
aF2
aF2
aF2
aF2
aF2
aF2
aF2
aF2
aF2
aF2
aF2
aF2
aF2
aF2
aF2
aF2
aF2
aF2
aF3
aF3
aF3
aF3
aF3
aF3
aF3
aF3
aF3
aF3
aF3
aF3
aF3
aF3
aF3
aF3
aF3
aF3
aF3
aF3
aF3
aF3
aF3
aF3
aF3
aF3
aF3
aF3
aF3
aF3
aF3
aF3
aF3
aF3
aF3
aF3
aF3
aF3
aF3
aF3
aF3
aF3
aF3
aF3
aF3
aF3
aF3
aF3
aF3
aF3
aF3
aF3
aF3
aF3
aF3
aF3
aF3
aF3
aF3
aF3
aF3
aF3
aF3
aF3
aF3
aF3
aF3
aF3
aF3
aF3
aF3
aF3
aF3
aF3
aF3
aF3
aF3
aF3
aF4
aF4
aF4
aF4
aF4
aF4
aF4
aF4
aF4
aF4
aF4
aF4
aF4
aF4
aF4
aF4
aF4
aF4
aF4
aF4
aF4
aF4
aF4
aF4
aF4
aF4
aF4
aF4
aF4
aF5
aF5
aF5
aF5
aF5
aF5
aF5
aF5
aF5
aF5
aF5
aF5
aF5
aF5
aF5
aF5
aF5
aF5
aF5
aF5
aF5
aF5
aF5
aF5
aF5
aF5
aF6
aF6
aF6
aF6
aF6
aF6
aF6
aF6
aF6
aF6
aF6
aF6
aF7
aF7
aF7
aF7
aF7
aF7
aF7
aF7
aF7
aF7
aF7
aF7
aF7
aF7
aF7
aF7
aF7
aF7
aF7
aF7
aF7
aF7
aF7
aF7
aF7
aF7
aF7
aF7
aF7
aF7
aF7
aF7
aF7
aF7
aF7
aF7
aF7
aF7
aF7
aF7
aF7
aF7
aF7
aF7
aF7
aF7
aF7
aF7
aF7
aF7
aF7
aF7
aF7
aF7
aF7
aF7
aF7
aF7
aF7
aF7
aF7
aF7
aF7
aF7
aF7
aF7
aF7
aF7
aF7
aF6
aF6
aF6
aF6
aF6
aF6
aF6
aF6
aF6
aF6
aF6
aF6
aF6
aF6
aF6
aF6
aF6
aF6
aF6
aF6
aF6
aF6
aF6
aF6
aF6
aF6
aF6
aF6
aF6
aF6
aF6
aF6
aF6
aF5
aF5
aF5
aF5
aF5
aF5
aF5
aF5
aF5
aF5
aF5
aF5
aF5
aF5
aF5
aF5
aF5
aF5
aF5
aF5
aF5
aF5
aF5
aF5
aF5
aF5
aF5
aF4
aF4
aF4
aF4
aF4
aF4
aF4
aF4
aF4
aF4
aF4
aF4
aF4
aF4
aF4
aF4
aF4
aF4
aF4
aF4
aF4
aF4
aF4
aF4
aF4
aF4
aF4
aF4
aF4
aF4
aF4
aF4
aF4
aF4
aF4
aF4
aF4
aF4
aF4
aF4
aF4
aF4
aF4
aF4
aF4
aF4
aF4
aF4
aF4
aF4
aF4
aF4
aF4
aF4
aF4
aF4
aF4
aF4
aF4
aF4
aF4
aF4
aF4
aF4
aF4
aF4
aF4
aF4
aF4
aF4
aF4
aF4
aF4
aF4
aF4
aF4
aF4
aF4
aF4
aF4
aF4
aF4
aF4
aF4
aF4
aF4
aF4
aF4
aF5
aF5
aF5
aF5
aF5
aF5
aF5
aF5
aF5
aF5
aF5
aF5
aF5
aF5
aF5
aF5
aF5
aF5
aF5
aF5
aF5
aF5
aF5
aF5
aF5
aF5
aF5
aF5
aF5
aF5
aF5
aF6
aF6
aF6
aF6
aF6
aF6
aF6
aF6
aF6
aF6
aF6
aF6
aF6
aF6
aF6
aF6
aF6
aF6
aF6
aF6
aF6
aF6
aF6
aF6
aF6
aF6
aF6
aF6
aF6
aF6
aF6
aF6
aF6
aF6
aF6
aF6
aF6
aF6
aF6
aF6
aF6
aF6
aF6
aF6
aF6
aF6
aF6
aF6
aF6
aF6
aF6
aF6
aF6
aF6
aF6
aF6
aF6
aF6
aF6
aF6
aF6
aF6
aF6
aF6
aF6
aF6
aF6
aF4
aF4
aF4
aF4
aF4
aF4
aF4
aF4
aF4
aF4
aF4
aF3
aF3
aF3
aF3
aF3
aF3
aF3
aF3
aF3
aF2
aF2
aF2
aF2
aF2
aF2
aF2
aF2
aF2
aF2
aF2
aF1
aF1
aF1
aF1
aF1
aF1
aF1
aF1
aF1
aF1
aF1
aF1
aF1
aF1
aF1
aF1
aF1
aF1
aF1
aF1
aF1
aF1
aF1
aF1
aF1
aF1
aF1
aF1
aF1
aF1
aF1
aF1
aF1
aF1
aF1
aF1
aF1
aF1
aF1
aF1
aF1
aF1
aF1
aF1
aF1
aF1
aF1
aF1
aF1
aF1
aF1
aF1
aF1
aF1
aF1
aF1
aF1
aF1
aF1
aF1
aF1
aF1
aF1
aF1
aF1
aF1
aF1
aF1
aF1
aF1
aF1
aF1
aF1
aF1
aF1
aF0
aF0
aF0
aF0
aF0
aF0
aF0
aF0
aF0
aF0
aF0
aF0
aF0
aF0
aF0
aF0
aF0
aF0
aF0
aF0
aF0
aF0
aF0
aF0
aF0
aF0
aF0
aF0
aF0
aF0
aF0
aF0
aF0
aF0
aF0
aF0
aF0
aF0
aF0
aF0
aF0
aF0
aF0
aF0
aF0
aF0
aF0
aF0
aF0
aF0
aF0
aF0
aF0
aF0
aF0
aF0
aF0
aF0
aF0
aF0
aF0
aF0
aF1
aF1
aF1
aF1
aF1
aF1
aF1
aF1
aF1
aF1
aF1
aF1
aF1
aF1
aF1
aF1
aF1
aF1
aF1
aF1
aF1
aF1
aF1
aF1
aF1
aF1
aF1
aF1
aF1
aF1
aF1
aF1
aF1
aF1
aF1
aF1
aF1
aF1
aF1
aF1
aF1
aF1
aF1
aF1
aF1
aF1
aF1
aF1
aF1
aF2
aF2
aF2
aF2
aF2
aF2
aF2
aF2
aF2
aF2
aF2
aF2
aF2
aF2
aF2
aF2
aF2
aF2
aF2
aF2
aF2
aF2
aF2
aF2
aF2
aF2
aF2
aF2
aF2
aF2
aF2
aF2
aF2
aF2
aF2
aF2
aF2
aF2
aF2
aF2
aF2
aF2
aF2
aF2
aF2
aF2
aF2
aF2
aF2
aF2
aF2
aF2
aF2
aF2
aF2
aF2
aF2
aF2
aF2
aF2
aF3
aF3
aF3
aF3
aF3
aF3
aF3
aF3
aF3
aF3
aF3
aF3
aF3
aF3
aF3
aF3
aF3
aF3
aF3
aF3
aF3
aF3
aF3
aF3
aF3
aF3
aF3
aF3
aF3
aF3
aF3
aF3
aF3
aF3
aF3
aF3
aF3
aF3
aF3
aF3
aF3
aF3
aF3
aF3
aF3
aF3
aF3
aF3
aF3
aF3
aF3
aF3
aF3
aF3
aF3
aF3
aF3
aF4
aF4
aF4
aF4
aF4
aF4
aF4
aF4
aF4
aF4
aF4
aF4
aF4
aF4
aF4
aF4
aF4
aF4
aF4
aF4
aF4
aF4
aF4
aF4
aF4
aF4
aF4
aF4
aF4
aF4
aF4
aF4
aF4
aF4
aF4
aF4
aF5
aF5
aF5
aF5
aF5
aF5
aF5
aF5
aF5
aF5
aF5
aF5
aF5
aF5
aF5
aF5
aF5
aF5
aF5
aF5
aF5
aF6
aF6
aF6
aF6
aF6
aF6
aF6
aF6
aF6
aF6
aF6
aF6
aF8
aF8
aF8
aF8
aF8
aF8
aF8
aF8
aF8
aF8
aF8
aF8
aF8
aF8
aF8
aF8
aF11
aF11
aF11
aF11
aF11
aF11
aF11
aF11
aF11
aF11
aF11
aF11
aF11
aF11
aF11
aF11
aF11
aF11
aF13
aF13
aF13
aF13
aF13
aF13
aF13
aF13
aF13
aF13
aF13
aF13
aF13
aF13
aF13
aF13
aF13
aF15
aF15
aF15
aF15
aF15
aF15
aF15
aF15
aF15
aF15
aF15
aF15
aF19
aF19
aF19
aF19
aF19
aF19
aF19
aF19
aF19
aF19
aF19
aF21
aF21
aF21
aF21
aF21
aF21
aF21
aF21
aF21
aF21
aF21
aF21
aF21
aF21
aF21
aF22
aF22
aF22
aF22
aF22
aF22
aF22
aF22
aF22
aF22
aF22
aF22
aF22
aF22
aF22
aF22
aF22
aF22
aF22
aF22
aF22
aF22
aF22
aF22
aF22
aF22
aF22
aF22
aF22
aF23
aF23
aF23
aF23
aF23
aF23
aF23
aF23
aF23
aF23
aF23
aF23
aF23
aF23
aF23
aF23
aF23
aF23
aF23
aF23
aF23
aF23
aF23
aF27
aF27
aF27
aF27
aF27
aF27
aF27
aF27
aF27
aF27
aF27
aF27
aF27
aF27
aF27
aF28
aF28
aF28
aF28
aF28
aF28
aF28
aF28
aF28
aF28
aF28
aF28
aF28
aF28
aF28
aF28
aF28
aF28
aF28
aF28
aF28
aF28
aF28
aF28
aF28
aF28
aF28
aF28
aF28
aF28
aF30
aF30
aF30
aF30
aF30
aF30
aF30
aF30
aF30
aF30
aF30
aF30
aF30
aF30
aF30
aF31
aF31
aF31
aF31
aF31
aF31
aF31
aF31
aF31
aF31
aF31
aF31
aF31
aF33
aF33
aF33
aF33
aF33
aF33
aF33
aF33
aF33
aF33
aF33
aF33
aF33
aF33
aF35
aF35
aF35
aF35
aF35
aF35
aF35
aF35
aF35
aF35
aF35
aF35
aF35
aF36
aF36
aF36
aF36
aF36
aF36
aF36
aF38
aF38
aF38
aF38
aF38
aF38
aF38
aF38
aF38
aF38
aF38
aF38
aF38
aF38
aF38
aF38
aF38
aF38
aF39
aF39
aF39
aF39
aF39
aF39
aF39
aF39
aF39
aF39
aF39
aF39
aF39
aF39
aF40
aF40
aF40
aF40
aF40
aF40
aF40
aF40
aF40
aF40
aF40
aF40
aF40
aF40
aF40
aF40
aF40
aF40
aF40
aF40
aF40
aF40
aF40
aF40
aF40
aF40
aF40
aF40
aF40
aF40
aF40
aF40
aF40
aF40
aF40
aF40
aF40
aF40
aF40
aF40
aF40
aF40
aF40
aF41
aF41
aF41
aF41
aF41
aF41
aF41
aF41
aF41
aF41
aF41
aF41
aF40
aF40
aF40
aF40
aF40
aF40
aF40
aF40
aF40
aF40
aF40
aF40
aF40
aF40
aF40
aF40
aF40
aF40
aF40
aF40
aF40
aF40
aF40
aF40
aF40
aF40
aF40
aF40
aF40
aF40
aF40
aF40
aF40
aF40
aF40
aF40
aF40
aF40
aF40
aF40
aF40
aF40
aF40
aF40
aF40
aF40
aF40
aF40
aF40
aF40
aF40
aF40
aF37
aF37
aF37
aF37
aF37
aF37
aF37
aF37
aF37
aF37
aF37
aF37
aF37
aF37
aF37
aF37
aF37
aF37
aF37
aF37
aF37
aF37
aF37
aF37
aF37
aF37
aF37
aF37
aF37
aF37
aF37
aF37
aF37
aF37
aF37
aF37
aF37
aF37
aF37
aF37
aF37
aF37
aF37
aF37
aF37
aF37
aF37
aF37
aF37
aF37
aF37
aF37
aF37
aF37
aF37
aF37
aF37
aF37
aF37
aF34
aF34
aF34
aF34
aF34
aF34
aF34
aF34
aF34
aF37
aF37
aF37
aF37
aF37
aF37
aF37
aF37
aF37
aF37
aF37
aF37
aF37
aF37
aF37
aF37
aF37
aF37
aF37
aF37
aF37
aF37
aF37
aF37
aF37
aF37
aF37
aF37
aF38
aF38
aF38
aF38
aF38
aF38
aF38
aF38
aF38
aF38
aF38
aF38
aF38
aF38
aF38
aF38
aF38
aF38
aF38
aF38
aF38
aF38
aF38
aF38
aF38
aF38
aF38
aF38
aF38
aF38
aF38
aF38
aF39
aF39
aF39
aF39
aF39
aF39
aF39
aF39
aF39
aF39
aF39
aF39
aF39
aF39
aF39
aF39
aF39
aF39
aF39
aF39
aF39
aF39
aF39
aF39
aF39
aF39
aF39
aF39
aF39
aF39
aF39
aF39
aF39
aF39
aF39
aF39
aF39
aF39
aF39
aF39
aF39
aF39
aF39
aF39
aF39
aF39
aF39
aF39
aF39
aF39
aF39
aF39
aF39
aF39
aF39
aF39
aF39
aF39
aF39
aF39
aF39
aF39
aF39
aF39
aF39
aF39
aF39
aF39
aF39
aF39
aF39
aF39
aF39
aF39
aF39
aF39
aF39
aF39
aF39
aF39
aF39
aF39
aF39
aF39
aF39
aF39
aF39
aF39
aF39
aF39
aF39
aF39
aF39
aF39
aF39
aF39
aF39
aF39
aF39
aF39
aF39
aF39
aF39
aF39
aF39
aF39
aF39
aF39
aF39
aF39
aF39
aF39
aF39
aF39
aF39
aF39
aF39
aF39
aF39
aF38
aF38
aF38
aF38
aF38
aF38
aF38
aF38
aF38
aF38
aF38
aF37
aF37
aF37
aF37
aF37
aF37
aF37
aF37
aF36
aF36
aF36
aF36
aF36
aF36
aF36
aF36
aF36
aF36
aF36
aF36
aF35
aF35
aF35
aF35
aF35
aF35
aF35
aF34
aF34
aF34
aF34
aF34
aF34
aF34
aF33
aF33
aF33
aF33
aF33
aF33
aF33
aF33
aF33
aF33
aF33
aF33
aF32
aF32
aF32
aF32
aF32
aF32
aF32
aF28
aF28
aF28
aF28
aF28
aF28
aF28
aF28
aF28
aF28
aF28
aF28
aF28
aF28
aF28
aF28
aF28
aF28
aF28
aF27
aF27
aF27
aF27
aF27
aF27
aF26
aF26
aF26
aF26
aF26
aF26
aF26
aF26
aF26
aF26
aF26
aF26
aF25
aF25
aF25
aF25
aF25
aF25
aF25
aF24
aF24
aF24
aF24
aF24
aF24
aF24
aF24
aF24
aF24
aF24
aF24
aF24
aF24
aF24
aF24
aF24
aF24
aF24
aF24
aF23
aF23
aF23
aF23
aF23
aF23
aF23
aF23
aF23
aF22
aF22
aF22
aF22
aF22
aF22
aF22
aF22
aF22
aF21
aF21
aF21
aF21
aF21
aF21
aF21
aF21
aF19
aF19
aF19
aF19
aF19
aF19
aF19
aF19
aF19
aF19
aF19
aF19
aF19
aF19
aF19
aF19
aF19
aF19
aF18
aF18
aF18
aF18
aF18
aF18
aF18
aF18
aF18
aF17
aF17
aF17
aF17
aF17
aF17
aF17
aF17
aF17
asS'zangle'
p4
(lp5
F2
aF2
aF2
aF2
aF2
aF2
aF2
aF2
aF2
aF2
aF2
aF2
aF2
aF2
aF2
aF2
aF2
aF2
aF2
aF2
aF2
aF2
aF2
aF2
aF2
aF2
aF2
aF2
aF2
aF2
aF2
aF2
aF2
aF2
aF2
aF2
aF2
aF2
aF2
aF2
aF2
aF2
aF2
aF2
aF2
aF2
aF2
aF2
aF2
aF2
aF2
aF2
aF2
aF2
aF2
aF2
aF2
aF2
aF2
aF2
aF2
aF2
aF2
aF2
aF2
aF2
aF2
aF2
aF2
aF2
aF2
aF2
aF2
aF2
aF2
aF2
aF2
aF2
aF2
aF2
aF2
aF2
aF2
aF2
aF2
aF2
aF2
aF2
aF2
aF2
aF2
aF2
aF2
aF2
aF2
aF2
aF2
aF2
aF2
aF2
aF2
aF2
aF2
aF2
aF2
aF2
aF2
aF2
aF2
aF2
aF2
aF2
aF2
aF2
aF2
aF2
aF2
aF2
aF2
aF2
aF2
aF2
aF2
aF2
aF2
aF2
aF2
aF2
aF2
aF2
aF2
aF2
aF2
aF2
aF2
aF2
aF2
aF2
aF2
aF2
aF2
aF2
aF2
aF2
aF2
aF2
aF2
aF2
aF2
aF2
aF2
aF2
aF2
aF2
aF2
aF2
aF2
aF2
aF2
aF2
aF2
aF2
aF2
aF2
aF2
aF2
aF2
aF2
aF2
aF2
aF2
aF2
aF2
aF2
aF2
aF2
aF2
aF2
aF2
aF2
aF2
aF2
aF2
aF2
aF2
aF2
aF2
aF2
aF2
aF2
aF2
aF2
aF2
aF2
aF2
aF2
aF2
aF2
aF2
aF2
aF2
aF2
aF2
aF2
aF2
aF2
aF2
aF2
aF2
aF2
aF2
aF2
aF2
aF2
aF2
aF2
aF2
aF2
aF2
aF2
aF2
aF2
aF2
aF2
aF2
aF2
aF2
aF2
aF2
aF2
aF2
aF2
aF2
aF2
aF2
aF2
aF2
aF2
aF2
aF2
aF2
aF2
aF2
aF2
aF2
aF2
aF2
aF2
aF2
aF2
aF2
aF2
aF2
aF2
aF2
aF2
aF2
aF2
aF2
aF2
aF2
aF2
aF2
aF2
aF2
aF2
aF2
aF2
aF2
aF2
aF2
aF2
aF2
aF2
aF2
aF2
aF2
aF2
aF2
aF2
aF2
aF2
aF2
aF2
aF2
aF2
aF2
aF2
aF2
aF2
aF2
aF2
aF2
aF2
aF2
aF2
aF2
aF2
aF2
aF2
aF2
aF2
aF2
aF2
aF2
aF2
aF2
aF2
aF2
aF2
aF2
aF2
aF2
aF2
aF2
aF2
aF2
aF2
aF2
aF2
aF2
aF2
aF2
aF2
aF2
aF2
aF2
aF2
aF2
aF2
aF2
aF2
aF2
aF2
aF2
aF2
aF2
aF2
aF2
aF2
aF2
aF2
aF2
aF2
aF2
aF2
aF2
aF2
aF2
aF2
aF2
aF2
aF2
aF2
aF2
aF2
aF2
aF2
aF2
aF2
aF2
aF2
aF2
aF2
aF2
aF2
aF2
aF2
aF2
aF2
aF2
aF2
aF2
aF2
aF2
aF2
aF2
aF2
aF2
aF2
aF2
aF2
aF2
aF2
aF2
aF2
aF2
aF2
aF2
aF2
aF2
aF2
aF2
aF2
aF2
aF2
aF2
aF2
aF2
aF2
aF2
aF2
aF2
aF2
aF2
aF2
aF2
aF2
aF2
aF2
aF2
aF2
aF2
aF2
aF2
aF2
aF2
aF2
aF2
aF2
aF2
aF2
aF2
aF2
aF2
aF2
aF2
aF2
aF2
aF2
aF2
aF2
aF2
aF2
aF2
aF2
aF2
aF2
aF2
aF2
aF2
aF2
aF2
aF2
aF2
aF2
aF2
aF2
aF2
aF2
aF2
aF2
aF2
aF2
aF2
aF2
aF2
aF2
aF2
aF2
aF2
aF2
aF2
aF2
aF2
aF2
aF2
aF2
aF2
aF2
aF2
aF2
aF2
aF2
aF2
aF2
aF2
aF2
aF2
aF2
aF2
aF2
aF2
aF2
aF2
aF2
aF2
aF2
aF2
aF2
aF2
aF2
aF2
aF2
aF2
aF2
aF2
aF2
aF2
aF2
aF2
aF2
aF2
aF2
aF2
aF2
aF2
aF2
aF2
aF2
aF2
aF2
aF2
aF2
aF2
aF2
aF2
aF2
aF2
aF2
aF2
aF2
aF2
aF2
aF2
aF2
aF2
aF2
aF2
aF2
aF2
aF2
aF2
aF2
aF2
aF2
aF2
aF2
aF2
aF2
aF2
aF2
aF2
aF2
aF2
aF2
aF2
aF2
aF2
aF2
aF2
aF2
aF2
aF2
aF2
aF2
aF2
aF2
aF2
aF2
aF2
aF2
aF2
aF2
aF2
aF2
aF2
aF2
aF2
aF2
aF2
aF2
aF2
aF2
aF2
aF2
aF2
aF2
aF2
aF2
aF2
aF2
aF2
aF2
aF2
aF2
aF2
aF2
aF2
aF2
aF2
aF2
aF2
aF2
aF2
aF2
aF2
aF2
aF2
aF2
aF2
aF2
aF2
aF2
aF2
aF2
aF2
aF2
aF2
aF2
aF2
aF2
aF2
aF2
aF2
aF2
aF2
aF2
aF2
aF2
aF2
aF2
aF2
aF2
aF2
aF2
aF2
aF2
aF2
aF2
aF2
aF2
aF2
aF2
aF2
aF2
aF2
aF2
aF2
aF2
aF2
aF2
aF2
aF2
aF2
aF2
aF2
aF2
aF2
aF2
aF2
aF2
aF2
aF2
aF2
aF2
aF2
aF2
aF2
aF2
aF2
aF2
aF2
aF2
aF2
aF2
aF2
aF2
aF2
aF2
aF2
aF2
aF2
aF2
aF2
aF2
aF2
aF2
aF2
aF2
aF2
aF2
aF2
aF2
aF2
aF2
aF2
aF2
aF2
aF2
aF2
aF2
aF2
aF2
aF2
aF2
aF2
aF2
aF2
aF2
aF2
aF2
aF2
aF2
aF2
aF2
aF2
aF2
aF2
aF2
aF2
aF2
aF2
aF2
aF2
aF2
aF2
aF2
aF2
aF2
aF2
aF2
aF2
aF2
aF2
aF2
aF2
aF2
aF2
aF2
aF2
aF2
aF2
aF2
aF2
aF2
aF2
aF2
aF2
aF2
aF2
aF2
aF2
aF2
aF2
aF2
aF2
aF2
aF2
aF2
aF2
aF2
aF2
aF2
aF2
aF2
aF2
aF2
aF2
aF2
aF2
aF2
aF2
aF2
aF2
aF2
aF2
aF2
aF2
aF2
aF2
aF2
aF2
aF2
aF2
aF2
aF2
aF2
aF2
aF2
aF2
aF2
aF2
aF2
aF2
aF2
aF2
aF2
aF2
aF2
aF2
aF2
aF2
aF2
aF2
aF2
aF2
aF2
aF2
aF2
aF2
aF2
aF2
aF2
aF2
aF2
aF2
aF2
aF2
aF2
aF2
aF2
aF2
aF2
aF2
aF2
aF2
aF2
aF2
aF2
aF2
aF2
aF2
aF2
aF2
aF2
aF2
aF2
aF2
aF2
aF2
aF2
aF2
aF2
aF2
aF2
aF2
aF2
aF2
aF2
aF2
aF2
aF2
aF2
aF2
aF2
aF2
aF2
aF2
aF2
aF2
aF2
aF2
aF2
aF2
aF2
aF2
aF2
aF2
aF2
aF2
aF2
aF2
aF2
aF2
aF2
aF2
aF2
aF2
aF2
aF2
aF2
aF2
aF2
aF2
aF2
aF2
aF2
aF2
aF2
aF2
aF2
aF2
aF2
aF2
aF2
aF2
aF2
aF2
aF2
aF2
aF2
aF2
aF2
aF2
aF2
aF2
aF2
aF2
aF2
aF2
aF2
aF2
aF2
aF2
aF2
aF2
aF2
aF2
aF2
aF2
aF2
aF2
aF2
aF2
aF2
aF2
aF2
aF2
aF2
aF2
aF2
aF2
aF2
aF2
aF2
aF2
aF2
aF2
aF2
aF2
aF2
aF2
aF2
aF2
aF2
aF2
aF2
aF2
aF2
aF2
aF2
aF2
aF2
aF2
aF2
aF2
aF2
aF2
aF2
aF2
aF2
aF2
aF2
aF2
aF2
aF2
aF2
aF2
aF2
aF2
aF2
aF2
aF2
aF2
aF2
aF2
aF2
aF2
aF2
aF2
aF2
aF2
aF2
aF2
aF2
aF2
aF2
aF2
aF2
aF2
aF2
aF2
aF2
aF2
aF2
aF2
aF2
aF2
aF2
aF2
aF2
aF2
aF2
aF2
aF2
aF2
aF2
aF2
aF2
aF2
aF2
aF2
aF2
aF2
aF2
aF2
aF2
aF2
aF2
aF2
aF2
aF2
aF2
aF2
aF2
aF2
aF2
aF2
aF2
aF2
aF2
aF2
aF2
aF2
aF2
aF2
aF2
aF2
aF2
aF2
aF2
aF2
aF2
aF2
aF2
aF2
aF2
aF2
aF2
aF2
aF2
aF2
aF2
aF2
aF2
aF2
aF2
aF2
aF2
aF2
aF2
aF2
aF2
aF2
aF2
aF2
aF2
aF2
aF2
aF2
aF2
aF2
aF2
aF2
aF2
aF2
aF2
aF2
aF2
aF2
aF2
aF2
aF2
aF2
aF2
aF2
aF2
aF2
aF2
aF2
aF2
aF2
aF2
aF2
aF2
aF2
aF2
aF2
aF2
aF2
aF2
aF2
aF2
aF2
aF2
aF2
aF2
aF2
aF2
aF2
aF2
aF2
aF2
aF2
aF2
aF2
aF2
aF2
aF2
aF2
aF2
aF2
aF2
aF2
aF2
aF2
aF2
aF2
aF2
aF2
aF2
aF2
aF2
aF2
aF2
aF2
aF2
aF2
aF2
aF2
aF2
aF2
aF2
aF2
aF2
aF2
aF2
aF2
aF2
aF2
aF2
aF2
aF2
aF2
aF2
aF2
aF2
aF2
aF2
aF2
aF2
aF2
aF2
aF2
aF2
aF2
aF2
aF2
aF2
aF2
aF2
aF2
aF2
aF2
aF2
aF2
aF2
aF2
aF2
aF2
aF2
aF2
aF2
aF2
aF2
aF2
aF2
aF2
aF2
aF2
aF2
aF2
aF2
aF2
aF2
aF2
aF2
aF2
aF2
aF2
aF2
aF2
aF2
aF2
aF2
aF2
aF2
aF2
aF2
aF2
aF2
aF2
aF2
aF2
aF2
aF2
aF2
aF2
aF2
aF2
aF2
aF2
aF2
aF2
aF2
aF2
aF2
aF2
aF2
aF2
aF2
aF2
aF2
aF2
aF2
aF2
aF2
aF2
aF2
aF2
aF2
aF2
aF2
aF2
aF2
aF2
aF2
aF2
aF2
aF2
aF2
aF2
aF2
aF2
aF2
aF2
aF2
aF2
aF2
aF2
aF2
aF2
aF2
aF2
aF2
aF2
aF2
aF2
aF2
aF2
aF2
aF2
aF2
aF2
aF2
aF2
aF2
aF2
aF2
aF2
aF2
aF2
aF2
aF2
aF2
aF2
aF2
aF2
aF2
aF2
aF2
aF2
aF2
aF2
aF2
aF2
aF2
aF2
aF2
aF2
aF2
aF2
aF2
aF2
aF2
aF2
aF2
aF2
aF2
aF2
aF2
aF2
aF2
aF2
aF2
aF2
aF2
aF2
aF2
aF2
aF2
aF2
aF2
aF2
aF2
aF2
aF2
aF2
aF2
aF2
aF2
aF2
aF2
aF2
aF2
aF2
aF2
aF2
aF2
aF2
aF2
aF2
aF2
aF2
aF2
aF2
aF2
aF2
aF2
aF2
aF2
aF2
aF2
aF2
aF2
aF2
aF2
aF2
aF2
aF2
aF2
aF2
aF2
aF2
aF2
aF2
aF2
aF2
aF2
aF2
aF2
aF2
aF2
aF2
aF2
aF2
aF2
aF2
aF2
aF2
aF2
aF2
aF2
aF2
aF2
aF2
aF2
aF2
aF2
aF2
aF2
aF2
aF2
aF2
aF2
aF2
aF2
aF2
aF2
aF2
aF2
aF2
aF2
aF2
aF2
aF2
aF2
aF2
aF2
aF2
aF2
aF2
aF2
aF2
aF2
aF2
aF2
aF2
aF2
aF2
aF2
aF2
aF2
aF2
aF2
aF2
aF2
aF2
aF2
aF2
aF2
aF2
aF2
aF2
aF2
aF2
aF2
aF2
aF2
aF2
aF2
aF2
aF2
aF2
aF2
aF2
aF2
aF2
aF2
aF2
aF2
aF2
aF2
aF2
aF2
aF2
aF2
aF2
aF2
aF2
aF2
aF2
aF2
aF2
aF2
aF2
aF2
aF2
aF2
aF2
aF2
aF2
aF2
aF2
aF2
aF2
aF2
aF2
aF2
aF2
aF2
aF2
aF2
aF2
aF2
aF2
aF2
aF2
aF2
aF2
aF2
aF2
aF2
aF2
aF2
aF2
aF2
aF2
aF2
aF2
aF2
aF2
aF2
aF2
aF2
aF2
aF2
aF2
aF2
aF2
aF2
aF2
aF2
aF2
aF2
aF2
aF2
aF2
aF2
aF2
aF2
aF2
aF2
aF2
aF2
aF2
aF2
aF2
aF2
aF2
aF2
aF2
aF2
aF2
aF2
aF2
aF2
aF2
aF2
aF2
aF2
aF2
aF2
aF2
aF2
aF2
aF2
aF2
aF2
aF2
aF2
aF2
aF2
aF2
aF2
aF2
aF2
aF2
aF2
aF2
aF2
aF2
aF2
aF2
aF2
aF2
aF2
aF2
aF2
aF2
aF2
aF2
aF2
aF2
aF2
aF2
aF2
aF2
aF2
aF2
aF2
aF2
aF2
aF2
aF2
aF2
aF2
aF2
aF2
aF2
aF2
aF2
aF2
aF2
aF2
aF2
aF2
aF2
aF2
aF2
aF2
aF2
aF2
aF2
aF2
aF2
aF2
aF2
aF2
aF2
aF2
aF2
aF2
aF2
aF2
aF2
aF2
aF2
aF2
aF2
aF2
aF2
aF2
aF2
aF2
aF2
aF2
aF2
aF2
aF2
aF2
aF2
aF2
aF2
aF2
aF2
aF2
aF2
aF2
aF2
aF2
aF2
aF2
aF2
aF2
aF2
aF2
aF2
aF2
aF2
aF2
aF2
aF2
aF2
aF2
aF2
aF2
aF2
aF2
aF2
aF2
aF2
aF2
aF2
aF2
aF2
aF2
aF2
aF2
aF2
aF2
aF2
aF2
aF2
aF2
aF2
aF2
aF2
aF2
aF2
aF2
aF2
aF2
aF2
aF2
aF2
aF2
aF2
aF2
aF2
aF2
aF2
aF2
aF2
aF2
aF2
aF2
aF2
aF2
aF2
aF2
aF2
aF2
aF2
aF2
aF2
aF2
aF2
aF2
aF2
aF2
aF2
aF2
aF2
aF2
aF2
aF2
aF2
aF2
aF2
as.