(dp0
S'frames'p1I1199sS'zangle'p2(lp3F-77aF-77aF-77aF-77aF-77aF-77aF-77aF-77aF-77aF-77aF-77aF-77aF-77aF-77aF-77aF-77aF-77aF-77aF-77aF-77aF-77aF-77aF-77aF-77aF-77aF-77aF-77aF-77aF-77aF-77aF-77aF-77aF-77aF-77aF-77aF-77aF-77aF-77aF-77aF-77aF-77aF-77aF-77aF-77aF-77aF-77aF-77aF-77aF-77aF-77aF-77aF-77aF-77aF-77aF-77aF-77aF-77aF-77aF-77aF-77aF-77aF-77aF-77aF-77aF-77aF-77aF-77aF-77aF-77aF-77aF-77aF-77aF-77aF-77aF-77aF-77aF-77aF-77aF-77aF-77aF-77aF-77aF-77aF-77aF-77aF-77aF-77aF-77aF-77aF-77aF-77aF-77aF-77aF-77aF-77aF-77aF-77aF-77aF-77aF-77aF-77aF-77aF-77aF-77aF-77aF-77aF-77aF-77aF-77aF-77aF-77aF-77aF-77aF-77aF-77aF-77aF-77aF-77aF-77aF-77aF-77aF-77aF-77aF-77aF-77aF-77aF-77aF-77aF-77aF-77aF-77aF-77aF-77aF-77aF-77aF-77aF-77aF-77aF-77aF-77aF-77aF-77aF-77aF-77aF-77aF-77aF-77aF-77aF-77aF-77aF-77aF-77aF-77aF-77aF-77aF-77aF-77aF-77aF-77aF-77aF-77aF-77aF-77aF-77aF-77aF-77aF-77aF-77aF-77aF-77aF-77aF-77aF-77aF-77aF-77aF-77aF-77aF-77aF-77aF-77aF-77aF-77aF-77aF-77aF-77aF-77aF-77aF-77aF-77aF-78aF-78aF-78aF-78aF-78aF-78aF-78aF-78aF-78aF-78aF-78aF-78aF-78aF-78aF-78aF-77aF-77aF-77aF-77aF-77aF-77aF-77aF-77aF-77aF-77aF-77aF-77aF-77aF-78aF-78aF-78aF-78aF-78aF-78aF-78aF-78aF-78aF-78aF-78aF-78aF-78aF-78aF-78aF-78aF-78aF-78aF-78aF-78aF-78aF-78aF-78aF-78aF-78aF-78aF-78aF-78aF-78aF-78aF-78aF-78aF-78aF-78aF-78aF-78aF-78aF-78aF-78aF-78aF-78aF-78aF-78aF-78aF-78aF-78aF-78aF-78aF-78aF-78aF-78aF-78aF-78aF-78aF-78aF-78aF-78aF-78aF-78aF-78aF-78aF-78aF-78aF-78aF-78aF-78aF-78aF-78aF-78aF-78aF-78aF-78aF-78aF-78aF-78aF-78aF-78aF-78aF-78aF-78aF-78aF-78aF-78aF-78aF-78aF-78aF-78aF-78aF-78aF-78aF-78aF-78aF-78aF-78aF-78aF-78aF-78aF-78aF-78aF-78aF-78aF-78aF-78aF-78aF-78aF-78aF-78aF-78aF-78aF-78aF-78aF-78aF-78aF-78aF-78aF-78aF-78aF-78aF-78aF-78aF-78aF-78aF-78aF-78aF-78aF-78aF-78aF-78aF-78aF-78aF-78aF-78aF-78aF-78aF-78aF-78aF-78aF-78aF-78aF-78aF-78aF-78aF-78aF-78aF-78aF-78aF-78aF-78aF-78aF-78aF-78aF-78aF-78aF-78aF-78aF-78aF-78aF-78aF-78aF-78aF-78aF-78aF-78aF-78aF-78aF-78aF-78aF-78aF-78aF-78aF-78aF-78aF-78aF-78aF-78aF-78aF-78aF-78aF-78aF-78aF-78aF-78aF-78aF-78aF-77aF-77aF-77aF-77aF-77aF-77aF-77aF-77aF-77aF-77aF-77aF-77aF-77aF-77aF-77aF-77aF-77aF-77aF-77aF-77aF-77aF-77aF-77aF-77aF-77aF-77aF-77aF-77aF-77aF-77aF-77aF-77aF-77aF-77aF-77aF-77aF-77aF-77aF-77aF-77aF-77aF-77aF-77aF-77aF-77aF-77aF-77aF-77aF-77aF-77aF-77aF-77aF-77aF-77aF-77aF-77aF-77aF-77aF-77aF-77aF-77aF-77aF-78aF-78aF-78aF-78aF-78aF-78aF-78aF-78aF-78aF-78aF-78aF-78aF-78aF-78aF-78aF-78aF-78aF-78aF-78aF-79aF-79aF-79aF-79aF-79aF-79aF-79aF-79aF-79aF-79aF-79aF-79aF-80aF-80aF-80aF-80aF-80aF-80aF-80aF-80aF-80aF-80aF-80aF-80aF-80aF-80aF-80aF-80aF-80aF-80aF-80aF-80aF-80aF-80aF-80aF-80aF-80aF-80aF-80aF-79aF-79aF-79aF-79aF-79aF-79aF-79aF-79aF-79aF-79aF-79aF-79aF-79aF-79aF-79aF-79aF-79aF-79aF-79aF-79aF-79aF-79aF-79aF-79aF-79aF-79aF-79aF-79aF-79aF-79aF-79aF-80aF-80aF-80aF-80aF-80aF-80aF-80aF-80aF-80aF-80aF-80aF-80aF-80aF-80aF-80aF-80aF-80aF-80aF-80aF-80aF-80aF-80aF-80aF-80aF-80aF-80aF-80aF-80aF-80aF-80aF-80aF-80aF-80aF-81aF-81aF-81aF-81aF-81aF-81aF-81aF-81aF-81aF-81aF-81aF-81aF-81aF-81aF-81aF-81aF-81aF-81aF-81aF-81aF-81aF-81aF-81aF-81aF-81aF-81aF-81aF-81aF-81aF-81aF-81aF-81aF-81aF-81aF-81aF-81aF-81aF-81aF-81aF-81aF-81aF-81aF-81aF-81aF-81aF-81aF-81aF-81aF-81aF-81aF-81aF-81aF-81aF-81aF-81aF-81aF-81aF-81aF-81aF-81aF-81aF-81aF-81aF-81aF-81aF-81aF-81aF-81aF-81aF-81aF-81aF-81aF-81aF-81aF-81aF-81aF-81aF-81aF-81aF-81aF-81aF-81aF-81aF-81aF-81aF-81aF-81aF-81aF-81aF-81aF-81aF-79aF-79aF-79aF-79aF-79aF-79aF-79aF-79aF-81aF-81aF-81aF-81aF-81aF-81aF-81aF-81aF-81aF-81aF-81aF-81aF-81aF-81aF-81aF-81aF-81aF-81aF-81aF-81aF-81aF-81aF-81aF-81aF-81aF-81aF-81aF-81aF-81aF-81aF-81aF-81aF-81aF-81aF-81aF-81aF-81aF-81aF-81aF-81aF-81aF-81aF-81aF-81aF-81aF-81aF-81aF-81aF-81aF-81aF-81aF-81aF-81aF-81aF-81aF-81aF-81aF-81aF-81aF-81aF-81aF-81aF-81aF-81aF-81aF-81aF-81aF-81aF-81aF-81aF-81aF-81aF-81aF-81aF-81aF-81aF-81aF-81aF-81aF-81aF-81aF-81aF-81aF-81aF-81aF-81aF-81aF-81aF-81aF-81aF-81aF-81aF-81aF-81aF-81aF-81aF-81aF-81aF-81aF-81aF-81aF-81aF-81aF-81aF-81aF-81aF-81aF-81aF-81aF-81aF-81aF-81aF-81aF-81aF-81aF-81aF-81aF-81aF-81aF-81aF-81aF-81aF-81aF-81aF-81aF-81aF-81aF-81aF-81aF-81aF-81aF-81aF-81aF-81aF-81aF-81aF-81aF-81aF-81aF-81aF-81aF-81aF-81aF-81aF-81aF-81aF-81aF-81aF-81aF-81aF-81aF-81aF-81aF-81aF-81aF-81aF-81aF-81aF-81aF-81aF-81aF-81aF-81aF-81aF-81aF-81aF-81aF-81aF-81aF-81aF-81aF-81aF-81aF-81aF-81aF-81aF-81aF-81aF-81aF-81aF-81aF-81aF-81aF-81aF-81aF-81aF-81aF-81aF-81aF-81aF-81aF-81aF-81aF-81aF-81aF-81aF-81aF-81aF-81aF-81aF-81aF-81aF-81aF-81aF-81aF-81aF-81aF-81aF-81aF-81aF-81aF-81aF-81aF-81aF-81aF-81aF-81aF-81aF-81aF-81aF-81aF-81aF-81aF-81aF-81aF-81aF-81aF-81aF-81aF-81aF-81aF-81aF-81aF-81aF-81aF-81aF-81aF-81aF-81aF-81aF-81aF-81aF-81aF-81aF-81aF-81aF-81aF-81aF-81aF-81aF-81aF-81aF-81aF-81aF-81aF-81aF-81aF-81aF-81aF-81aF-81aF-81aF-81aF-81aF-81aF-81aF-81aF-81aF-81aF-81aF-81aF-81aF-81aF-81aF-81aF-81aF-81aF-80aF-80aF-80aF-80aF-80aF-80aF-80aF-80aF-80aF-80aF-80aF-80aF-80aF-80aF-80aF-80aF-80aF-80aF-80aF-80aF-80aF-80aF-80aF-80aF-80aF-80aF-80aF-80aF-80aF-80aF-80aF-80aF-80aF-80aF-80aF-80aF-80aF-80aF-80aF-80aF-80aF-80aF-80aF-80aF-80aF-80aF-80aF-80aF-80aF-80aF-80aF-80aF-80aF-80aF-80aF-80aF-80aF-80aF-80aF-80aF-80aF-80aF-80aF-80aF-80aF-80aF-80aF-80aF-80aF-80aF-80aF-80aF-80aF-80aF-80aF-80aF-80aF-80aF-80aF-80aF-80aF-80aF-80aF-80aF-80aF-80aF-80aF-79aF-79aF-79aF-79aF-79aF-79aF-79aF-79aF-79aF-79aF-79aF-79aF-79aF-79aF-79aF-79aF-79aF-79aF-79aF-79aF-79aF-79aF-79aF-79aF-79aF-79aF-79aF-79aF-79aF-79aF-79aF-79aF-79aF-79aF-79aF-79aF-79aF-79aF-79aF-78aF-78aF-78aF-78aF-78aF-78aF-78aF-78aF-78aF-78aF-78aF-78aF-78aF-78aF-78aF-78aF-78aF-77aF-77aF-77aF-77aF-77aF-77aF-77aF-77aF-77aF-77aF-77aF-77aF-77aF-77aF-77aF-77aF-77aF-77aF-77aF-77aF-77aF-77aF-77aF-77aF-77aF-77aF-77aF-77aF-77aF-77aF-77aF-77aF-77aF-77aF-77aF-77aF-77aF-77aF-77aF-76aF-76aF-76aF-76aF-76aF-76aF-76aF-76aF-76aF-76aF-76aF-76aF-76aF-76aF-76aF-76aF-76aF-76aF-76aF-76aF-76aF-76aF-76aF-76aF-76aF-76aF-76aF-76aF-76aF-76aF-76aF-76aF-77aF-77aF-77aF-77aF-77aF-77aF-77aF-77aF-77aF-77aF-77aF-77aF-77aF-77aF-77aF-77aF-77aF-76aF-76aF-76aF-76aF-76aF-76aF-76asS'xangle'p4(lp5F2aF2aF2aF2aF2aF2aF2aF2aF2aF2aF2aF2aF2aF2aF2aF2aF2aF2aF2aF2aF2aF2aF2aF2aF2aF2aF2aF2aF2aF2aF2aF2aF2aF2aF2aF2aF2aF2aF2aF2aF2aF2aF2aF2aF2aF2aF2aF2aF2aF2aF2aF2aF2aF2aF2aF2aF2aF2aF2aF2aF2aF2aF2aF2aF2aF2aF2aF2aF2aF2aF2aF2aF2aF2aF2aF2aF2aF2aF2aF2aF2aF2aF2aF2aF2aF2aF2aF2aF2aF2aF2aF2aF2aF2aF2aF2aF2aF2aF2aF2aF2aF2aF2aF2aF2aF2aF2aF2aF2aF2aF2aF2aF2aF2aF2aF2aF2aF2aF2aF2aF2aF2aF2aF2aF2aF2aF2aF2aF2aF2aF2aF2aF2aF2aF2aF2aF2aF2aF2aF2aF2aF2aF2aF2aF2aF2aF2aF2aF2aF2aF2aF2aF2aF2aF2aF2aF2aF2aF2aF2aF2aF2aF2aF2aF2aF2aF2aF2aF2aF2aF2aF2aF2aF2aF2aF2aF2aF2aF2aF2aF2aF2aF2aF2aF2aF2aF2aF2aF2aF2aF2aF2aF2aF2aF2aF2aF2aF2aF2aF2aF2aF2aF2aF2aF2aF2aF2aF2aF2aF2aF2aF2aF2aF2aF2aF2aF2aF2aF2aF2aF2aF2aF2aF2aF2aF2aF2aF2aF2aF2aF2aF2aF2aF2aF2aF2aF2aF2aF2aF2aF2aF2aF2aF2aF2aF2aF2aF2aF2aF2aF2aF2aF2aF2aF2aF2aF2aF2aF2aF2aF2aF2aF2aF2aF2aF2aF2aF2aF2aF2aF2aF2aF2aF2aF2aF2aF2aF2aF2aF2aF2aF2aF2aF2aF2aF2aF2aF2aF2aF2aF2aF2aF2aF2aF2aF2aF2aF2aF2aF2aF2aF2aF2aF2aF2aF2aF2aF2aF2aF2aF2aF2aF2aF2aF2aF2aF2aF2aF2aF2aF2aF2aF2aF2aF2aF2aF2aF2aF2aF2aF2aF2aF2aF2aF2aF2aF2aF2aF2aF2aF2aF2aF2aF2aF2aF2aF2aF2aF2aF2aF2aF2aF2aF2aF2aF2aF2aF2aF2aF2aF2aF2aF2aF2aF2aF2aF2aF2aF2aF2aF2aF2aF2aF2aF2aF2aF2aF2aF2aF2aF2aF2aF2aF2aF2aF2aF2aF2aF2aF2aF2aF2aF2aF2aF2aF2aF2aF2aF2aF2aF2aF2aF2aF2aF2aF2aF2aF2aF2aF2aF2aF2aF2aF2aF2aF2aF2aF2aF2aF2aF2aF2aF2aF2aF2aF2aF2aF2aF2aF2aF2aF2aF2aF2aF2aF2aF2aF2aF2aF2aF2aF2aF2aF2aF2aF2aF2aF2aF2aF2aF2aF2aF2aF2aF2aF2aF2aF2aF2aF2aF2aF2aF2aF2aF2aF2aF2aF2aF2aF2aF2aF2aF2aF2aF2aF2aF2aF2aF2aF2aF2aF2aF2aF2aF2aF2aF2aF2aF2aF2aF2aF2aF2aF2aF2aF2aF2aF2aF2aF2aF2aF2aF2aF2aF2aF2aF2aF2aF2aF2aF2aF2aF2aF2aF2aF2aF2aF2aF2aF2aF2aF2aF2aF2aF2aF2aF2aF2aF2aF2aF2aF2aF2aF2aF2aF2aF2aF2aF2aF2aF2aF2aF2aF2aF2aF2aF2aF2aF2aF2aF2aF2aF2aF2aF2aF2aF2aF2aF2aF2aF2aF2aF2aF2aF2aF2aF2aF2aF2aF2aF2aF2aF2aF2aF2aF2aF2aF2aF2aF2aF2aF2aF2aF2aF2aF2aF2aF2aF2aF2aF2aF2aF2aF2aF2aF2aF2aF2aF2aF2aF2aF2aF2aF2aF2aF2aF2aF2aF2aF2aF2aF2aF2aF2aF2aF2aF2aF2aF2aF2aF2aF2aF2aF2aF2aF2aF2aF2aF2aF2aF2aF2aF2aF2aF2aF2aF2aF2aF2aF2aF2aF2aF2aF2aF2aF2aF2aF2aF2aF2aF2aF2aF2aF2aF2aF2aF2aF2aF2aF2aF2aF2aF2aF2aF2aF2aF2aF2aF2aF2aF2aF2aF2aF2aF2aF2aF2aF2aF2aF2aF2aF2aF2aF2aF2aF2aF2aF2aF2aF2aF2aF2aF2aF2aF2aF2aF2aF2aF2aF2aF2aF2aF2aF2aF2aF2aF2aF2aF2aF2aF2aF2aF2aF2aF2aF2aF2aF2aF2aF2aF2aF2aF2aF2aF2aF2aF2aF2aF2aF2aF2aF2aF2aF2aF2aF2aF2aF2aF2aF2aF2aF2aF2aF2aF2aF2aF2aF2aF2aF2aF2aF2aF2aF2aF2aF2aF2aF2aF2aF2aF2aF2aF2aF2aF2aF2aF2aF2aF2aF2aF2aF2aF2aF2aF2aF2aF2aF2aF2aF2aF2aF2aF2aF2aF2aF2aF2aF2aF2aF2aF2aF2aF2aF2aF2aF2aF2aF2aF2aF2aF2aF2aF2aF2aF2aF2aF2aF2aF2aF2aF2aF2aF2aF2aF2aF2aF2aF2aF2aF2aF2aF2aF2aF2aF2aF2aF2aF2aF2aF2aF2aF2aF2aF2aF2aF2aF2aF2aF2aF2aF2aF2aF2aF2aF2aF2aF2aF2aF2aF2aF2aF2aF2aF2aF2aF2aF2aF2aF2aF2aF2aF2aF2aF2aF2aF2aF2aF2aF2aF2aF2aF2aF2aF2aF2aF2aF2aF2aF2aF2aF2aF2aF2aF2aF2aF2aF2aF2aF2aF2aF2aF2aF2aF2aF2aF2aF2aF2aF2aF2aF2aF2aF2aF2aF2aF2aF2aF2aF2aF2aF2aF2aF2aF2aF2aF2aF2aF2aF2aF2aF2aF2aF2aF2aF2aF2aF2aF2aF2aF2aF2aF2aF2aF2aF2aF2aF2aF2aF2aF2aF2aF2aF2aF2aF2aF2aF2aF2aF2aF2aF2aF2aF2aF2aF2aF2aF2aF2aF2aF2aF2aF2aF2aF2aF2aF2aF2aF2aF2aF2aF2aF2aF2aF2aF2aF2aF2aF2aF2aF2aF2aF2aF2aF2aF2aF2aF2aF2aF2aF2aF2aF2aF2aF2aF2aF2aF2aF2aF2aF2aF2aF2aF2aF2aF2aF2aF2aF2aF2aF2aF2aF2aF2aF2aF2aF2aF2aF2aF2aF2aF2aF2aF2aF2aF2aF2aF2aF2aF2aF2aF2aF2aF2aF2aF2aF2aF2aF2aF2aF2aF2aF2aF2aF2aF2aF2aF2aF2aF2aF2aF2aF2aF2aF2aF2aF2aF2aF2aF2aF2aF2aF2aF2aF2aF2aF2aF2aF2aF2aF2aF2aF2aF2aF2aF2aF2aF2aF2aF2aF2aF2aF2aF2aF2aF2aF2aF2aF2aF2aF2aF2aF2aF2aF2aF2aF2aF2aF2aF2aF2aF2aF2aF2aF2aF2aF2aF2aF2aF2aF2aF2aF2aF2aF2aF2aF2aF2aF2aF2aF2aF2aF2aF2aF2aF2aF2aF2aF2aF2aF2aF2aF2aF2aF2aF2aF2aF2aF2aF2aF2aF2aF2aF2aF2aF2aF2aF2aF2aF2aF2aF2aF2aF2aF2aF2aF2aF2aF2aF2aF2aF2aF2aF2aF2aF2aF2aF2aF2aF2aF2aF2aF2aF2aF2aF2aF2aF2aF2aF2aF2aF2aF2aF2aF2aF2aF2aF2aF2aF2aF2aF2aF2aF2aF2aF2aF2aF2aF2aF2as.